Archive member included to satisfy reference by file (symbol)

/mnt/c/users/isaacstalley/documents/github/libopencm3/lib/libopencm3_stm32f4.a(adc_common_v1.o)
                              build/adc.o (adc_power_off)
/mnt/c/users/isaacstalley/documents/github/libopencm3/lib/libopencm3_stm32f4.a(adc_common_v1_multi.o)
                              build/adc.o (adc_power_on)
/mnt/c/users/isaacstalley/documents/github/libopencm3/lib/libopencm3_stm32f4.a(adc_common_f47.o)
                              build/adc.o (adc_set_sample_time_on_all_channels)
/mnt/c/users/isaacstalley/documents/github/libopencm3/lib/libopencm3_stm32f4.a(fmc_common_f47.o)
                              build/sdram.o (sdram_timing)
/mnt/c/users/isaacstalley/documents/github/libopencm3/lib/libopencm3_stm32f4.a(gpio_common_all.o)
                              build/lcd-spi.o (gpio_set)
/mnt/c/users/isaacstalley/documents/github/libopencm3/lib/libopencm3_stm32f4.a(gpio_common_f0234.o)
                              build/adc.o (gpio_mode_setup)
/mnt/c/users/isaacstalley/documents/github/libopencm3/lib/libopencm3_stm32f4.a(rcc_common_all.o)
                              build/adc.o (rcc_periph_clock_enable)
/mnt/c/users/isaacstalley/documents/github/libopencm3/lib/libopencm3_stm32f4.a(rcc.o)
                              build/clock.o (rcc_clock_setup_pll)
/mnt/c/users/isaacstalley/documents/github/libopencm3/lib/libopencm3_stm32f4.a(spi_common_all.o)
                              build/lcd-spi.o (spi_enable)
/mnt/c/users/isaacstalley/documents/github/libopencm3/lib/libopencm3_stm32f4.a(spi_common_v1.o)
                              build/lcd-spi.o (spi_init_master)
/mnt/c/users/isaacstalley/documents/github/libopencm3/lib/libopencm3_stm32f4.a(usb.o)
                              build/usb-com.o (usbd_init)
/mnt/c/users/isaacstalley/documents/github/libopencm3/lib/libopencm3_stm32f4.a(usb_standard.o)
                              build/usb-com.o (usbd_register_set_config_callback)
/mnt/c/users/isaacstalley/documents/github/libopencm3/lib/libopencm3_stm32f4.a(usb_control.o)
                              build/usb-com.o (usbd_register_control_callback)
/mnt/c/users/isaacstalley/documents/github/libopencm3/lib/libopencm3_stm32f4.a(usb_f207.o)
                              build/usb-com.o (stm32f207_usb_driver)
/mnt/c/users/isaacstalley/documents/github/libopencm3/lib/libopencm3_stm32f4.a(vector.o)
                              (reset_handler)
/mnt/c/users/isaacstalley/documents/github/libopencm3/lib/libopencm3_stm32f4.a(systick.o)
                              build/clock.o (systick_set_reload)
/mnt/c/users/isaacstalley/documents/github/libopencm3/lib/libopencm3_stm32f4.a(flash_common_all.o)
                              /mnt/c/users/isaacstalley/documents/github/libopencm3/lib/libopencm3_stm32f4.a(rcc.o) (flash_set_ws)
/mnt/c/users/isaacstalley/documents/github/libopencm3/lib/libopencm3_stm32f4.a(flash_common_idcache.o)
                              /mnt/c/users/isaacstalley/documents/github/libopencm3/lib/libopencm3_stm32f4.a(rcc.o) (flash_dcache_enable)
/mnt/c/users/isaacstalley/documents/github/libopencm3/lib/libopencm3_stm32f4.a(pwr.o)
                              /mnt/c/users/isaacstalley/documents/github/libopencm3/lib/libopencm3_stm32f4.a(rcc.o) (pwr_set_vos_scale)
/mnt/c/users/isaacstalley/documents/github/libopencm3/lib/libopencm3_stm32f4.a(usb_dwc_common.o)
                              /mnt/c/users/isaacstalley/documents/github/libopencm3/lib/libopencm3_stm32f4.a(usb_f207.o) (dwc_set_address)
/usr/lib/gcc/arm-none-eabi/10.3.1/../../../arm-none-eabi/lib/thumb/v7e-m+fp/hard/libc_nano.a(lib_a-memcpy.o)
                              /mnt/c/users/isaacstalley/documents/github/libopencm3/lib/libopencm3_stm32f4.a(usb_standard.o) (memcpy)
/usr/lib/gcc/arm-none-eabi/10.3.1/../../../arm-none-eabi/lib/thumb/v7e-m+fp/hard/libc_nano.a(lib_a-sprintf.o)
                              build/main.o (sprintf)
/usr/lib/gcc/arm-none-eabi/10.3.1/../../../arm-none-eabi/lib/thumb/v7e-m+fp/hard/libc_nano.a(lib_a-strlen.o)
                              /mnt/c/users/isaacstalley/documents/github/libopencm3/lib/libopencm3_stm32f4.a(usb_standard.o) (strlen)
/usr/lib/gcc/arm-none-eabi/10.3.1/../../../arm-none-eabi/lib/thumb/v7e-m+fp/hard/libc_nano.a(lib_a-impure.o)
                              /usr/lib/gcc/arm-none-eabi/10.3.1/../../../arm-none-eabi/lib/thumb/v7e-m+fp/hard/libc_nano.a(lib_a-sprintf.o) (_impure_ptr)
/usr/lib/gcc/arm-none-eabi/10.3.1/../../../arm-none-eabi/lib/thumb/v7e-m+fp/hard/libc_nano.a(lib_a-nano-svfprintf.o)
                              /usr/lib/gcc/arm-none-eabi/10.3.1/../../../arm-none-eabi/lib/thumb/v7e-m+fp/hard/libc_nano.a(lib_a-sprintf.o) (_svfprintf_r)
/usr/lib/gcc/arm-none-eabi/10.3.1/../../../arm-none-eabi/lib/thumb/v7e-m+fp/hard/libc_nano.a(lib_a-nano-vfprintf_i.o)
                              /usr/lib/gcc/arm-none-eabi/10.3.1/../../../arm-none-eabi/lib/thumb/v7e-m+fp/hard/libc_nano.a(lib_a-nano-svfprintf.o) (_printf_i)
/usr/lib/gcc/arm-none-eabi/10.3.1/../../../arm-none-eabi/lib/thumb/v7e-m+fp/hard/libc_nano.a(lib_a-memchr.o)
                              /usr/lib/gcc/arm-none-eabi/10.3.1/../../../arm-none-eabi/lib/thumb/v7e-m+fp/hard/libc_nano.a(lib_a-nano-svfprintf.o) (memchr)
/usr/lib/gcc/arm-none-eabi/10.3.1/../../../arm-none-eabi/lib/thumb/v7e-m+fp/hard/libc_nano.a(lib_a-memmove.o)
                              /usr/lib/gcc/arm-none-eabi/10.3.1/../../../arm-none-eabi/lib/thumb/v7e-m+fp/hard/libc_nano.a(lib_a-nano-svfprintf.o) (memmove)
/usr/lib/gcc/arm-none-eabi/10.3.1/../../../arm-none-eabi/lib/thumb/v7e-m+fp/hard/libc_nano.a(lib_a-nano-freer.o)
                              /usr/lib/gcc/arm-none-eabi/10.3.1/../../../arm-none-eabi/lib/thumb/v7e-m+fp/hard/libc_nano.a(lib_a-nano-svfprintf.o) (_free_r)
/usr/lib/gcc/arm-none-eabi/10.3.1/../../../arm-none-eabi/lib/thumb/v7e-m+fp/hard/libc_nano.a(lib_a-nano-mallocr.o)
                              /usr/lib/gcc/arm-none-eabi/10.3.1/../../../arm-none-eabi/lib/thumb/v7e-m+fp/hard/libc_nano.a(lib_a-nano-svfprintf.o) (_malloc_r)
/usr/lib/gcc/arm-none-eabi/10.3.1/../../../arm-none-eabi/lib/thumb/v7e-m+fp/hard/libc_nano.a(lib_a-nano-reallocr.o)
                              /usr/lib/gcc/arm-none-eabi/10.3.1/../../../arm-none-eabi/lib/thumb/v7e-m+fp/hard/libc_nano.a(lib_a-nano-svfprintf.o) (_realloc_r)
/usr/lib/gcc/arm-none-eabi/10.3.1/../../../arm-none-eabi/lib/thumb/v7e-m+fp/hard/libc_nano.a(lib_a-sbrkr.o)
                              /usr/lib/gcc/arm-none-eabi/10.3.1/../../../arm-none-eabi/lib/thumb/v7e-m+fp/hard/libc_nano.a(lib_a-nano-mallocr.o) (_sbrk_r)
/usr/lib/gcc/arm-none-eabi/10.3.1/../../../arm-none-eabi/lib/thumb/v7e-m+fp/hard/libc_nano.a(lib_a-mlock.o)
                              /usr/lib/gcc/arm-none-eabi/10.3.1/../../../arm-none-eabi/lib/thumb/v7e-m+fp/hard/libc_nano.a(lib_a-nano-freer.o) (__malloc_lock)
/usr/lib/gcc/arm-none-eabi/10.3.1/../../../arm-none-eabi/lib/thumb/v7e-m+fp/hard/libc_nano.a(lib_a-nano-msizer.o)
                              /usr/lib/gcc/arm-none-eabi/10.3.1/../../../arm-none-eabi/lib/thumb/v7e-m+fp/hard/libc_nano.a(lib_a-nano-reallocr.o) (_malloc_usable_size_r)
/usr/lib/gcc/arm-none-eabi/10.3.1/../../../arm-none-eabi/lib/thumb/v7e-m+fp/hard/libc_nano.a(lib_a-reent.o)
                              /usr/lib/gcc/arm-none-eabi/10.3.1/../../../arm-none-eabi/lib/thumb/v7e-m+fp/hard/libc_nano.a(lib_a-sbrkr.o) (errno)
/usr/lib/gcc/arm-none-eabi/10.3.1/../../../arm-none-eabi/lib/thumb/v7e-m+fp/hard/libnosys.a(sbrk.o)
                              /usr/lib/gcc/arm-none-eabi/10.3.1/../../../arm-none-eabi/lib/thumb/v7e-m+fp/hard/libc_nano.a(lib_a-sbrkr.o) (_sbrk)

Discarded input sections

 .text          0x0000000000000000        0x0 build/adc.o
 .data          0x0000000000000000        0x0 build/adc.o
 .bss           0x0000000000000000        0x0 build/adc.o
 .text          0x0000000000000000        0x0 build/clock.o
 .data          0x0000000000000000        0x0 build/clock.o
 .bss           0x0000000000000000        0x0 build/clock.o
 .text          0x0000000000000000        0x0 build/font-7x12.o
 .data          0x0000000000000000        0x0 build/font-7x12.o
 .bss           0x0000000000000000        0x0 build/font-7x12.o
 .debug_info    0x0000000000000000      0x4d5 build/font-7x12.o
 .debug_abbrev  0x0000000000000000       0x45 build/font-7x12.o
 .debug_aranges
                0x0000000000000000       0x18 build/font-7x12.o
 .debug_line    0x0000000000000000       0x2c build/font-7x12.o
 .debug_str     0x0000000000000000      0x165 build/font-7x12.o
 .comment       0x0000000000000000       0x34 build/font-7x12.o
 .ARM.attributes
                0x0000000000000000       0x39 build/font-7x12.o
 .text          0x0000000000000000        0x0 build/gfx.o
 .data          0x0000000000000000        0x0 build/gfx.o
 .bss           0x0000000000000000        0x0 build/gfx.o
 .text.gfx_drawCircle
                0x0000000000000000      0x102 build/gfx.o
 .text.gfx_drawCircleHelper
                0x0000000000000000       0xf0 build/gfx.o
 .text.gfx_fillCircle
                0x0000000000000000       0x40 build/gfx.o
 .text.gfx_drawFastHLine
                0x0000000000000000       0x1a build/gfx.o
 .text.gfx_drawRect
                0x0000000000000000       0x4c build/gfx.o
 .text.gfx_fillScreen
                0x0000000000000000       0x24 build/gfx.o
 .text.gfx_drawRoundRect
                0x0000000000000000       0xde build/gfx.o
 .text.gfx_drawTriangle
                0x0000000000000000       0x42 build/gfx.o
 .text.gfx_fillTriangle
                0x0000000000000000      0x17e build/gfx.o
 .text.gfx_drawBitmap
                0x0000000000000000       0x78 build/gfx.o
 .text.gfx_setTextColor
                0x0000000000000000        0xc build/gfx.o
 .text.gfx_setTextWrap
                0x0000000000000000        0xc build/gfx.o
 .text.gfx_getRotation
                0x0000000000000000        0xc build/gfx.o
 .text.gfx_setRotation
                0x0000000000000000       0x34 build/gfx.o
 .text.gfx_width
                0x0000000000000000        0xc build/gfx.o
 .text.gfx_height
                0x0000000000000000        0xc build/gfx.o
 .text          0x0000000000000000        0x0 build/lcd-spi.o
 .data          0x0000000000000000        0x0 build/lcd-spi.o
 .bss           0x0000000000000000        0x0 build/lcd-spi.o
 .text          0x0000000000000000        0x0 build/main.o
 .data          0x0000000000000000        0x0 build/main.o
 .bss           0x0000000000000000        0x0 build/main.o
 .text          0x0000000000000000        0x0 build/sdram.o
 .data          0x0000000000000000        0x0 build/sdram.o
 .bss           0x0000000000000000        0x0 build/sdram.o
 .text          0x0000000000000000        0x0 build/spi-mems.o
 .data          0x0000000000000000        0x0 build/spi-mems.o
 .bss           0x0000000000000000        0x0 build/spi-mems.o
 .text          0x0000000000000000        0x0 build/usb-com.o
 .data          0x0000000000000000        0x0 build/usb-com.o
 .bss           0x0000000000000000        0x0 build/usb-com.o
 .group         0x0000000000000000        0xc /mnt/c/users/isaacstalley/documents/github/libopencm3/lib/libopencm3_stm32f4.a(adc_common_v1.o)
 .group         0x0000000000000000        0xc /mnt/c/users/isaacstalley/documents/github/libopencm3/lib/libopencm3_stm32f4.a(adc_common_v1.o)
 .group         0x0000000000000000        0xc /mnt/c/users/isaacstalley/documents/github/libopencm3/lib/libopencm3_stm32f4.a(adc_common_v1.o)
 .group         0x0000000000000000        0xc /mnt/c/users/isaacstalley/documents/github/libopencm3/lib/libopencm3_stm32f4.a(adc_common_v1.o)
 .group         0x0000000000000000        0xc /mnt/c/users/isaacstalley/documents/github/libopencm3/lib/libopencm3_stm32f4.a(adc_common_v1.o)
 .group         0x0000000000000000        0xc /mnt/c/users/isaacstalley/documents/github/libopencm3/lib/libopencm3_stm32f4.a(adc_common_v1.o)
 .group         0x0000000000000000        0xc /mnt/c/users/isaacstalley/documents/github/libopencm3/lib/libopencm3_stm32f4.a(adc_common_v1.o)
 .group         0x0000000000000000        0xc /mnt/c/users/isaacstalley/documents/github/libopencm3/lib/libopencm3_stm32f4.a(adc_common_v1.o)
 .group         0x0000000000000000        0xc /mnt/c/users/isaacstalley/documents/github/libopencm3/lib/libopencm3_stm32f4.a(adc_common_v1.o)
 .group         0x0000000000000000        0xc /mnt/c/users/isaacstalley/documents/github/libopencm3/lib/libopencm3_stm32f4.a(adc_common_v1.o)
 .text          0x0000000000000000        0x0 /mnt/c/users/isaacstalley/documents/github/libopencm3/lib/libopencm3_stm32f4.a(adc_common_v1.o)
 .data          0x0000000000000000        0x0 /mnt/c/users/isaacstalley/documents/github/libopencm3/lib/libopencm3_stm32f4.a(adc_common_v1.o)
 .bss           0x0000000000000000        0x0 /mnt/c/users/isaacstalley/documents/github/libopencm3/lib/libopencm3_stm32f4.a(adc_common_v1.o)
 .text.adc_enable_analog_watchdog_regular
                0x0000000000000000        0xa /mnt/c/users/isaacstalley/documents/github/libopencm3/lib/libopencm3_stm32f4.a(adc_common_v1.o)
 .text.adc_disable_analog_watchdog_regular
                0x0000000000000000        0xa /mnt/c/users/isaacstalley/documents/github/libopencm3/lib/libopencm3_stm32f4.a(adc_common_v1.o)
 .text.adc_enable_analog_watchdog_injected
                0x0000000000000000        0xa /mnt/c/users/isaacstalley/documents/github/libopencm3/lib/libopencm3_stm32f4.a(adc_common_v1.o)
 .text.adc_disable_analog_watchdog_injected
                0x0000000000000000        0xa /mnt/c/users/isaacstalley/documents/github/libopencm3/lib/libopencm3_stm32f4.a(adc_common_v1.o)
 .text.adc_enable_discontinuous_mode_regular
                0x0000000000000000       0x18 /mnt/c/users/isaacstalley/documents/github/libopencm3/lib/libopencm3_stm32f4.a(adc_common_v1.o)
 .text.adc_disable_discontinuous_mode_regular
                0x0000000000000000        0xa /mnt/c/users/isaacstalley/documents/github/libopencm3/lib/libopencm3_stm32f4.a(adc_common_v1.o)
 .text.adc_enable_discontinuous_mode_injected
                0x0000000000000000        0xa /mnt/c/users/isaacstalley/documents/github/libopencm3/lib/libopencm3_stm32f4.a(adc_common_v1.o)
 .text.adc_disable_discontinuous_mode_injected
                0x0000000000000000        0xa /mnt/c/users/isaacstalley/documents/github/libopencm3/lib/libopencm3_stm32f4.a(adc_common_v1.o)
 .text.adc_enable_automatic_injected_group_conversion
                0x0000000000000000       0x12 /mnt/c/users/isaacstalley/documents/github/libopencm3/lib/libopencm3_stm32f4.a(adc_common_v1.o)
 .text.adc_disable_automatic_injected_group_conversion
                0x0000000000000000        0xa /mnt/c/users/isaacstalley/documents/github/libopencm3/lib/libopencm3_stm32f4.a(adc_common_v1.o)
 .text.adc_enable_analog_watchdog_on_all_channels
                0x0000000000000000        0xa /mnt/c/users/isaacstalley/documents/github/libopencm3/lib/libopencm3_stm32f4.a(adc_common_v1.o)
 .text.adc_enable_analog_watchdog_on_selected_channel
                0x0000000000000000       0x18 /mnt/c/users/isaacstalley/documents/github/libopencm3/lib/libopencm3_stm32f4.a(adc_common_v1.o)
 .text.adc_enable_scan_mode
                0x0000000000000000        0xa /mnt/c/users/isaacstalley/documents/github/libopencm3/lib/libopencm3_stm32f4.a(adc_common_v1.o)
 .text.adc_enable_eoc_interrupt_injected
                0x0000000000000000        0xa /mnt/c/users/isaacstalley/documents/github/libopencm3/lib/libopencm3_stm32f4.a(adc_common_v1.o)
 .text.adc_disable_eoc_interrupt_injected
                0x0000000000000000        0xa /mnt/c/users/isaacstalley/documents/github/libopencm3/lib/libopencm3_stm32f4.a(adc_common_v1.o)
 .text.adc_enable_awd_interrupt
                0x0000000000000000        0xa /mnt/c/users/isaacstalley/documents/github/libopencm3/lib/libopencm3_stm32f4.a(adc_common_v1.o)
 .text.adc_disable_awd_interrupt
                0x0000000000000000        0xa /mnt/c/users/isaacstalley/documents/github/libopencm3/lib/libopencm3_stm32f4.a(adc_common_v1.o)
 .text.adc_enable_eoc_interrupt
                0x0000000000000000        0xa /mnt/c/users/isaacstalley/documents/github/libopencm3/lib/libopencm3_stm32f4.a(adc_common_v1.o)
 .text.adc_disable_eoc_interrupt
                0x0000000000000000        0xa /mnt/c/users/isaacstalley/documents/github/libopencm3/lib/libopencm3_stm32f4.a(adc_common_v1.o)
 .text.adc_set_left_aligned
                0x0000000000000000        0xa /mnt/c/users/isaacstalley/documents/github/libopencm3/lib/libopencm3_stm32f4.a(adc_common_v1.o)
 .text.adc_set_right_aligned
                0x0000000000000000        0xa /mnt/c/users/isaacstalley/documents/github/libopencm3/lib/libopencm3_stm32f4.a(adc_common_v1.o)
 .text.adc_eoc_injected
                0x0000000000000000        0x8 /mnt/c/users/isaacstalley/documents/github/libopencm3/lib/libopencm3_stm32f4.a(adc_common_v1.o)
 .text.adc_read_injected
                0x0000000000000000       0x22 /mnt/c/users/isaacstalley/documents/github/libopencm3/lib/libopencm3_stm32f4.a(adc_common_v1.o)
 .text.adc_set_continuous_conversion_mode
                0x0000000000000000        0xa /mnt/c/users/isaacstalley/documents/github/libopencm3/lib/libopencm3_stm32f4.a(adc_common_v1.o)
 .text.adc_set_single_conversion_mode
                0x0000000000000000        0xa /mnt/c/users/isaacstalley/documents/github/libopencm3/lib/libopencm3_stm32f4.a(adc_common_v1.o)
 .text.adc_set_watchdog_high_threshold
                0x0000000000000000        0x8 /mnt/c/users/isaacstalley/documents/github/libopencm3/lib/libopencm3_stm32f4.a(adc_common_v1.o)
 .text.adc_set_watchdog_low_threshold
                0x0000000000000000        0x8 /mnt/c/users/isaacstalley/documents/github/libopencm3/lib/libopencm3_stm32f4.a(adc_common_v1.o)
 .text.adc_set_injected_sequence
                0x0000000000000000       0x26 /mnt/c/users/isaacstalley/documents/github/libopencm3/lib/libopencm3_stm32f4.a(adc_common_v1.o)
 .text.adc_set_injected_offset
                0x0000000000000000       0x1e /mnt/c/users/isaacstalley/documents/github/libopencm3/lib/libopencm3_stm32f4.a(adc_common_v1.o)
 .text.adc_start_conversion_injected
                0x0000000000000000       0x14 /mnt/c/users/isaacstalley/documents/github/libopencm3/lib/libopencm3_stm32f4.a(adc_common_v1.o)
 .text.adc_enable_dma
                0x0000000000000000        0xa /mnt/c/users/isaacstalley/documents/github/libopencm3/lib/libopencm3_stm32f4.a(adc_common_v1.o)
 .text.adc_disable_dma
                0x0000000000000000        0xa /mnt/c/users/isaacstalley/documents/github/libopencm3/lib/libopencm3_stm32f4.a(adc_common_v1.o)
 .text.adc_get_flag
                0x0000000000000000        0xc /mnt/c/users/isaacstalley/documents/github/libopencm3/lib/libopencm3_stm32f4.a(adc_common_v1.o)
 .text.adc_clear_flag
                0x0000000000000000        0x6 /mnt/c/users/isaacstalley/documents/github/libopencm3/lib/libopencm3_stm32f4.a(adc_common_v1.o)
 .group         0x0000000000000000        0xc /mnt/c/users/isaacstalley/documents/github/libopencm3/lib/libopencm3_stm32f4.a(adc_common_v1_multi.o)
 .group         0x0000000000000000        0xc /mnt/c/users/isaacstalley/documents/github/libopencm3/lib/libopencm3_stm32f4.a(adc_common_v1_multi.o)
 .group         0x0000000000000000        0xc /mnt/c/users/isaacstalley/documents/github/libopencm3/lib/libopencm3_stm32f4.a(adc_common_v1_multi.o)
 .group         0x0000000000000000        0xc /mnt/c/users/isaacstalley/documents/github/libopencm3/lib/libopencm3_stm32f4.a(adc_common_v1_multi.o)
 .group         0x0000000000000000        0xc /mnt/c/users/isaacstalley/documents/github/libopencm3/lib/libopencm3_stm32f4.a(adc_common_v1_multi.o)
 .group         0x0000000000000000        0xc /mnt/c/users/isaacstalley/documents/github/libopencm3/lib/libopencm3_stm32f4.a(adc_common_v1_multi.o)
 .group         0x0000000000000000        0xc /mnt/c/users/isaacstalley/documents/github/libopencm3/lib/libopencm3_stm32f4.a(adc_common_v1_multi.o)
 .group         0x0000000000000000        0xc /mnt/c/users/isaacstalley/documents/github/libopencm3/lib/libopencm3_stm32f4.a(adc_common_v1_multi.o)
 .group         0x0000000000000000        0xc /mnt/c/users/isaacstalley/documents/github/libopencm3/lib/libopencm3_stm32f4.a(adc_common_v1_multi.o)
 .group         0x0000000000000000        0xc /mnt/c/users/isaacstalley/documents/github/libopencm3/lib/libopencm3_stm32f4.a(adc_common_v1_multi.o)
 .text          0x0000000000000000        0x0 /mnt/c/users/isaacstalley/documents/github/libopencm3/lib/libopencm3_stm32f4.a(adc_common_v1_multi.o)
 .data          0x0000000000000000        0x0 /mnt/c/users/isaacstalley/documents/github/libopencm3/lib/libopencm3_stm32f4.a(adc_common_v1_multi.o)
 .bss           0x0000000000000000        0x0 /mnt/c/users/isaacstalley/documents/github/libopencm3/lib/libopencm3_stm32f4.a(adc_common_v1_multi.o)
 .text.adc_set_clk_prescale
                0x0000000000000000       0x18 /mnt/c/users/isaacstalley/documents/github/libopencm3/lib/libopencm3_stm32f4.a(adc_common_v1_multi.o)
 .text.adc_enable_external_trigger_regular
                0x0000000000000000        0xe /mnt/c/users/isaacstalley/documents/github/libopencm3/lib/libopencm3_stm32f4.a(adc_common_v1_multi.o)
 .text.adc_disable_external_trigger_regular
                0x0000000000000000        0xa /mnt/c/users/isaacstalley/documents/github/libopencm3/lib/libopencm3_stm32f4.a(adc_common_v1_multi.o)
 .text.adc_enable_external_trigger_injected
                0x0000000000000000        0xe /mnt/c/users/isaacstalley/documents/github/libopencm3/lib/libopencm3_stm32f4.a(adc_common_v1_multi.o)
 .text.adc_disable_external_trigger_injected
                0x0000000000000000        0xa /mnt/c/users/isaacstalley/documents/github/libopencm3/lib/libopencm3_stm32f4.a(adc_common_v1_multi.o)
 .text.adc_set_resolution
                0x0000000000000000        0xc /mnt/c/users/isaacstalley/documents/github/libopencm3/lib/libopencm3_stm32f4.a(adc_common_v1_multi.o)
 .text.adc_enable_overrun_interrupt
                0x0000000000000000        0xa /mnt/c/users/isaacstalley/documents/github/libopencm3/lib/libopencm3_stm32f4.a(adc_common_v1_multi.o)
 .text.adc_disable_overrun_interrupt
                0x0000000000000000        0xa /mnt/c/users/isaacstalley/documents/github/libopencm3/lib/libopencm3_stm32f4.a(adc_common_v1_multi.o)
 .text.adc_get_overrun_flag
                0x0000000000000000        0x8 /mnt/c/users/isaacstalley/documents/github/libopencm3/lib/libopencm3_stm32f4.a(adc_common_v1_multi.o)
 .text.adc_clear_overrun_flag
                0x0000000000000000        0xa /mnt/c/users/isaacstalley/documents/github/libopencm3/lib/libopencm3_stm32f4.a(adc_common_v1_multi.o)
 .text.adc_eoc_after_each
                0x0000000000000000        0xa /mnt/c/users/isaacstalley/documents/github/libopencm3/lib/libopencm3_stm32f4.a(adc_common_v1_multi.o)
 .text.adc_eoc_after_group
                0x0000000000000000        0xa /mnt/c/users/isaacstalley/documents/github/libopencm3/lib/libopencm3_stm32f4.a(adc_common_v1_multi.o)
 .text.adc_set_dma_continue
                0x0000000000000000        0xa /mnt/c/users/isaacstalley/documents/github/libopencm3/lib/libopencm3_stm32f4.a(adc_common_v1_multi.o)
 .text.adc_set_dma_terminate
                0x0000000000000000        0xa /mnt/c/users/isaacstalley/documents/github/libopencm3/lib/libopencm3_stm32f4.a(adc_common_v1_multi.o)
 .text.adc_awd  0x0000000000000000        0x8 /mnt/c/users/isaacstalley/documents/github/libopencm3/lib/libopencm3_stm32f4.a(adc_common_v1_multi.o)
 .text.adc_enable_temperature_sensor
                0x0000000000000000       0x14 /mnt/c/users/isaacstalley/documents/github/libopencm3/lib/libopencm3_stm32f4.a(adc_common_v1_multi.o)
 .text.adc_disable_temperature_sensor
                0x0000000000000000       0x14 /mnt/c/users/isaacstalley/documents/github/libopencm3/lib/libopencm3_stm32f4.a(adc_common_v1_multi.o)
 .debug_macro   0x0000000000000000      0xa6c /mnt/c/users/isaacstalley/documents/github/libopencm3/lib/libopencm3_stm32f4.a(adc_common_v1_multi.o)
 .debug_macro   0x0000000000000000       0x1c /mnt/c/users/isaacstalley/documents/github/libopencm3/lib/libopencm3_stm32f4.a(adc_common_v1_multi.o)
 .debug_macro   0x0000000000000000      0x34e /mnt/c/users/isaacstalley/documents/github/libopencm3/lib/libopencm3_stm32f4.a(adc_common_v1_multi.o)
 .debug_macro   0x0000000000000000       0x22 /mnt/c/users/isaacstalley/documents/github/libopencm3/lib/libopencm3_stm32f4.a(adc_common_v1_multi.o)
 .debug_macro   0x0000000000000000       0xe8 /mnt/c/users/isaacstalley/documents/github/libopencm3/lib/libopencm3_stm32f4.a(adc_common_v1_multi.o)
 .debug_macro   0x0000000000000000       0x76 /mnt/c/users/isaacstalley/documents/github/libopencm3/lib/libopencm3_stm32f4.a(adc_common_v1_multi.o)
 .debug_macro   0x0000000000000000      0x280 /mnt/c/users/isaacstalley/documents/github/libopencm3/lib/libopencm3_stm32f4.a(adc_common_v1_multi.o)
 .debug_macro   0x0000000000000000      0x449 /mnt/c/users/isaacstalley/documents/github/libopencm3/lib/libopencm3_stm32f4.a(adc_common_v1_multi.o)
 .debug_macro   0x0000000000000000      0x2d5 /mnt/c/users/isaacstalley/documents/github/libopencm3/lib/libopencm3_stm32f4.a(adc_common_v1_multi.o)
 .debug_macro   0x0000000000000000      0x1be /mnt/c/users/isaacstalley/documents/github/libopencm3/lib/libopencm3_stm32f4.a(adc_common_v1_multi.o)
 .group         0x0000000000000000        0xc /mnt/c/users/isaacstalley/documents/github/libopencm3/lib/libopencm3_stm32f4.a(adc_common_f47.o)
 .group         0x0000000000000000        0xc /mnt/c/users/isaacstalley/documents/github/libopencm3/lib/libopencm3_stm32f4.a(adc_common_f47.o)
 .group         0x0000000000000000        0xc /mnt/c/users/isaacstalley/documents/github/libopencm3/lib/libopencm3_stm32f4.a(adc_common_f47.o)
 .group         0x0000000000000000        0xc /mnt/c/users/isaacstalley/documents/github/libopencm3/lib/libopencm3_stm32f4.a(adc_common_f47.o)
 .group         0x0000000000000000        0xc /mnt/c/users/isaacstalley/documents/github/libopencm3/lib/libopencm3_stm32f4.a(adc_common_f47.o)
 .group         0x0000000000000000        0xc /mnt/c/users/isaacstalley/documents/github/libopencm3/lib/libopencm3_stm32f4.a(adc_common_f47.o)
 .group         0x0000000000000000        0xc /mnt/c/users/isaacstalley/documents/github/libopencm3/lib/libopencm3_stm32f4.a(adc_common_f47.o)
 .group         0x0000000000000000        0xc /mnt/c/users/isaacstalley/documents/github/libopencm3/lib/libopencm3_stm32f4.a(adc_common_f47.o)
 .group         0x0000000000000000        0xc /mnt/c/users/isaacstalley/documents/github/libopencm3/lib/libopencm3_stm32f4.a(adc_common_f47.o)
 .group         0x0000000000000000        0xc /mnt/c/users/isaacstalley/documents/github/libopencm3/lib/libopencm3_stm32f4.a(adc_common_f47.o)
 .text          0x0000000000000000        0x0 /mnt/c/users/isaacstalley/documents/github/libopencm3/lib/libopencm3_stm32f4.a(adc_common_f47.o)
 .data          0x0000000000000000        0x0 /mnt/c/users/isaacstalley/documents/github/libopencm3/lib/libopencm3_stm32f4.a(adc_common_f47.o)
 .bss           0x0000000000000000        0x0 /mnt/c/users/isaacstalley/documents/github/libopencm3/lib/libopencm3_stm32f4.a(adc_common_f47.o)
 .text.adc_set_sample_time
                0x0000000000000000       0x36 /mnt/c/users/isaacstalley/documents/github/libopencm3/lib/libopencm3_stm32f4.a(adc_common_f47.o)
 .text.adc_set_multi_mode
                0x0000000000000000       0x14 /mnt/c/users/isaacstalley/documents/github/libopencm3/lib/libopencm3_stm32f4.a(adc_common_f47.o)
 .text.adc_enable_vbat_sensor
                0x0000000000000000       0x14 /mnt/c/users/isaacstalley/documents/github/libopencm3/lib/libopencm3_stm32f4.a(adc_common_f47.o)
 .text.adc_disable_vbat_sensor
                0x0000000000000000       0x14 /mnt/c/users/isaacstalley/documents/github/libopencm3/lib/libopencm3_stm32f4.a(adc_common_f47.o)
 .debug_macro   0x0000000000000000      0xa6c /mnt/c/users/isaacstalley/documents/github/libopencm3/lib/libopencm3_stm32f4.a(adc_common_f47.o)
 .debug_macro   0x0000000000000000       0x1c /mnt/c/users/isaacstalley/documents/github/libopencm3/lib/libopencm3_stm32f4.a(adc_common_f47.o)
 .debug_macro   0x0000000000000000      0x34e /mnt/c/users/isaacstalley/documents/github/libopencm3/lib/libopencm3_stm32f4.a(adc_common_f47.o)
 .debug_macro   0x0000000000000000       0x22 /mnt/c/users/isaacstalley/documents/github/libopencm3/lib/libopencm3_stm32f4.a(adc_common_f47.o)
 .debug_macro   0x0000000000000000       0xe8 /mnt/c/users/isaacstalley/documents/github/libopencm3/lib/libopencm3_stm32f4.a(adc_common_f47.o)
 .debug_macro   0x0000000000000000       0x76 /mnt/c/users/isaacstalley/documents/github/libopencm3/lib/libopencm3_stm32f4.a(adc_common_f47.o)
 .debug_macro   0x0000000000000000      0x280 /mnt/c/users/isaacstalley/documents/github/libopencm3/lib/libopencm3_stm32f4.a(adc_common_f47.o)
 .debug_macro   0x0000000000000000      0x449 /mnt/c/users/isaacstalley/documents/github/libopencm3/lib/libopencm3_stm32f4.a(adc_common_f47.o)
 .debug_macro   0x0000000000000000      0x2d5 /mnt/c/users/isaacstalley/documents/github/libopencm3/lib/libopencm3_stm32f4.a(adc_common_f47.o)
 .debug_macro   0x0000000000000000      0x1be /mnt/c/users/isaacstalley/documents/github/libopencm3/lib/libopencm3_stm32f4.a(adc_common_f47.o)
 .group         0x0000000000000000        0xc /mnt/c/users/isaacstalley/documents/github/libopencm3/lib/libopencm3_stm32f4.a(fmc_common_f47.o)
 .group         0x0000000000000000        0xc /mnt/c/users/isaacstalley/documents/github/libopencm3/lib/libopencm3_stm32f4.a(fmc_common_f47.o)
 .group         0x0000000000000000        0xc /mnt/c/users/isaacstalley/documents/github/libopencm3/lib/libopencm3_stm32f4.a(fmc_common_f47.o)
 .group         0x0000000000000000        0xc /mnt/c/users/isaacstalley/documents/github/libopencm3/lib/libopencm3_stm32f4.a(fmc_common_f47.o)
 .group         0x0000000000000000        0xc /mnt/c/users/isaacstalley/documents/github/libopencm3/lib/libopencm3_stm32f4.a(fmc_common_f47.o)
 .group         0x0000000000000000        0xc /mnt/c/users/isaacstalley/documents/github/libopencm3/lib/libopencm3_stm32f4.a(fmc_common_f47.o)
 .group         0x0000000000000000        0xc /mnt/c/users/isaacstalley/documents/github/libopencm3/lib/libopencm3_stm32f4.a(fmc_common_f47.o)
 .group         0x0000000000000000        0xc /mnt/c/users/isaacstalley/documents/github/libopencm3/lib/libopencm3_stm32f4.a(fmc_common_f47.o)
 .group         0x0000000000000000        0xc /mnt/c/users/isaacstalley/documents/github/libopencm3/lib/libopencm3_stm32f4.a(fmc_common_f47.o)
 .text          0x0000000000000000        0x0 /mnt/c/users/isaacstalley/documents/github/libopencm3/lib/libopencm3_stm32f4.a(fmc_common_f47.o)
 .data          0x0000000000000000        0x0 /mnt/c/users/isaacstalley/documents/github/libopencm3/lib/libopencm3_stm32f4.a(fmc_common_f47.o)
 .bss           0x0000000000000000        0x0 /mnt/c/users/isaacstalley/documents/github/libopencm3/lib/libopencm3_stm32f4.a(fmc_common_f47.o)
 .debug_macro   0x0000000000000000      0xa6c /mnt/c/users/isaacstalley/documents/github/libopencm3/lib/libopencm3_stm32f4.a(fmc_common_f47.o)
 .debug_macro   0x0000000000000000      0x34e /mnt/c/users/isaacstalley/documents/github/libopencm3/lib/libopencm3_stm32f4.a(fmc_common_f47.o)
 .debug_macro   0x0000000000000000       0x1c /mnt/c/users/isaacstalley/documents/github/libopencm3/lib/libopencm3_stm32f4.a(fmc_common_f47.o)
 .debug_macro   0x0000000000000000       0x22 /mnt/c/users/isaacstalley/documents/github/libopencm3/lib/libopencm3_stm32f4.a(fmc_common_f47.o)
 .debug_macro   0x0000000000000000       0xe8 /mnt/c/users/isaacstalley/documents/github/libopencm3/lib/libopencm3_stm32f4.a(fmc_common_f47.o)
 .debug_macro   0x0000000000000000       0x76 /mnt/c/users/isaacstalley/documents/github/libopencm3/lib/libopencm3_stm32f4.a(fmc_common_f47.o)
 .debug_macro   0x0000000000000000      0x280 /mnt/c/users/isaacstalley/documents/github/libopencm3/lib/libopencm3_stm32f4.a(fmc_common_f47.o)
 .group         0x0000000000000000        0xc /mnt/c/users/isaacstalley/documents/github/libopencm3/lib/libopencm3_stm32f4.a(gpio_common_all.o)
 .group         0x0000000000000000        0xc /mnt/c/users/isaacstalley/documents/github/libopencm3/lib/libopencm3_stm32f4.a(gpio_common_all.o)
 .group         0x0000000000000000        0xc /mnt/c/users/isaacstalley/documents/github/libopencm3/lib/libopencm3_stm32f4.a(gpio_common_all.o)
 .group         0x0000000000000000        0xc /mnt/c/users/isaacstalley/documents/github/libopencm3/lib/libopencm3_stm32f4.a(gpio_common_all.o)
 .group         0x0000000000000000        0xc /mnt/c/users/isaacstalley/documents/github/libopencm3/lib/libopencm3_stm32f4.a(gpio_common_all.o)
 .group         0x0000000000000000        0xc /mnt/c/users/isaacstalley/documents/github/libopencm3/lib/libopencm3_stm32f4.a(gpio_common_all.o)
 .group         0x0000000000000000        0xc /mnt/c/users/isaacstalley/documents/github/libopencm3/lib/libopencm3_stm32f4.a(gpio_common_all.o)
 .group         0x0000000000000000        0xc /mnt/c/users/isaacstalley/documents/github/libopencm3/lib/libopencm3_stm32f4.a(gpio_common_all.o)
 .group         0x0000000000000000        0xc /mnt/c/users/isaacstalley/documents/github/libopencm3/lib/libopencm3_stm32f4.a(gpio_common_all.o)
 .group         0x0000000000000000        0xc /mnt/c/users/isaacstalley/documents/github/libopencm3/lib/libopencm3_stm32f4.a(gpio_common_all.o)
 .text          0x0000000000000000        0x0 /mnt/c/users/isaacstalley/documents/github/libopencm3/lib/libopencm3_stm32f4.a(gpio_common_all.o)
 .data          0x0000000000000000        0x0 /mnt/c/users/isaacstalley/documents/github/libopencm3/lib/libopencm3_stm32f4.a(gpio_common_all.o)
 .bss           0x0000000000000000        0x0 /mnt/c/users/isaacstalley/documents/github/libopencm3/lib/libopencm3_stm32f4.a(gpio_common_all.o)
 .text.gpio_get
                0x0000000000000000        0x6 /mnt/c/users/isaacstalley/documents/github/libopencm3/lib/libopencm3_stm32f4.a(gpio_common_all.o)
 .text.gpio_toggle
                0x0000000000000000       0x12 /mnt/c/users/isaacstalley/documents/github/libopencm3/lib/libopencm3_stm32f4.a(gpio_common_all.o)
 .text.gpio_port_read
                0x0000000000000000        0x6 /mnt/c/users/isaacstalley/documents/github/libopencm3/lib/libopencm3_stm32f4.a(gpio_common_all.o)
 .text.gpio_port_write
                0x0000000000000000        0x4 /mnt/c/users/isaacstalley/documents/github/libopencm3/lib/libopencm3_stm32f4.a(gpio_common_all.o)
 .text.gpio_port_config_lock
                0x0000000000000000       0x10 /mnt/c/users/isaacstalley/documents/github/libopencm3/lib/libopencm3_stm32f4.a(gpio_common_all.o)
 .debug_macro   0x0000000000000000      0xa6c /mnt/c/users/isaacstalley/documents/github/libopencm3/lib/libopencm3_stm32f4.a(gpio_common_all.o)
 .debug_macro   0x0000000000000000       0x1c /mnt/c/users/isaacstalley/documents/github/libopencm3/lib/libopencm3_stm32f4.a(gpio_common_all.o)
 .debug_macro   0x0000000000000000      0x34e /mnt/c/users/isaacstalley/documents/github/libopencm3/lib/libopencm3_stm32f4.a(gpio_common_all.o)
 .debug_macro   0x0000000000000000       0x22 /mnt/c/users/isaacstalley/documents/github/libopencm3/lib/libopencm3_stm32f4.a(gpio_common_all.o)
 .debug_macro   0x0000000000000000       0xe8 /mnt/c/users/isaacstalley/documents/github/libopencm3/lib/libopencm3_stm32f4.a(gpio_common_all.o)
 .debug_macro   0x0000000000000000       0x76 /mnt/c/users/isaacstalley/documents/github/libopencm3/lib/libopencm3_stm32f4.a(gpio_common_all.o)
 .debug_macro   0x0000000000000000      0x280 /mnt/c/users/isaacstalley/documents/github/libopencm3/lib/libopencm3_stm32f4.a(gpio_common_all.o)
 .group         0x0000000000000000        0xc /mnt/c/users/isaacstalley/documents/github/libopencm3/lib/libopencm3_stm32f4.a(gpio_common_f0234.o)
 .group         0x0000000000000000        0xc /mnt/c/users/isaacstalley/documents/github/libopencm3/lib/libopencm3_stm32f4.a(gpio_common_f0234.o)
 .group         0x0000000000000000        0xc /mnt/c/users/isaacstalley/documents/github/libopencm3/lib/libopencm3_stm32f4.a(gpio_common_f0234.o)
 .group         0x0000000000000000        0xc /mnt/c/users/isaacstalley/documents/github/libopencm3/lib/libopencm3_stm32f4.a(gpio_common_f0234.o)
 .group         0x0000000000000000        0xc /mnt/c/users/isaacstalley/documents/github/libopencm3/lib/libopencm3_stm32f4.a(gpio_common_f0234.o)
 .group         0x0000000000000000        0xc /mnt/c/users/isaacstalley/documents/github/libopencm3/lib/libopencm3_stm32f4.a(gpio_common_f0234.o)
 .group         0x0000000000000000        0xc /mnt/c/users/isaacstalley/documents/github/libopencm3/lib/libopencm3_stm32f4.a(gpio_common_f0234.o)
 .group         0x0000000000000000        0xc /mnt/c/users/isaacstalley/documents/github/libopencm3/lib/libopencm3_stm32f4.a(gpio_common_f0234.o)
 .group         0x0000000000000000        0xc /mnt/c/users/isaacstalley/documents/github/libopencm3/lib/libopencm3_stm32f4.a(gpio_common_f0234.o)
 .group         0x0000000000000000        0xc /mnt/c/users/isaacstalley/documents/github/libopencm3/lib/libopencm3_stm32f4.a(gpio_common_f0234.o)
 .text          0x0000000000000000        0x0 /mnt/c/users/isaacstalley/documents/github/libopencm3/lib/libopencm3_stm32f4.a(gpio_common_f0234.o)
 .data          0x0000000000000000        0x0 /mnt/c/users/isaacstalley/documents/github/libopencm3/lib/libopencm3_stm32f4.a(gpio_common_f0234.o)
 .bss           0x0000000000000000        0x0 /mnt/c/users/isaacstalley/documents/github/libopencm3/lib/libopencm3_stm32f4.a(gpio_common_f0234.o)
 .debug_macro   0x0000000000000000      0xa6c /mnt/c/users/isaacstalley/documents/github/libopencm3/lib/libopencm3_stm32f4.a(gpio_common_f0234.o)
 .debug_macro   0x0000000000000000       0x1c /mnt/c/users/isaacstalley/documents/github/libopencm3/lib/libopencm3_stm32f4.a(gpio_common_f0234.o)
 .debug_macro   0x0000000000000000      0x34e /mnt/c/users/isaacstalley/documents/github/libopencm3/lib/libopencm3_stm32f4.a(gpio_common_f0234.o)
 .debug_macro   0x0000000000000000       0x22 /mnt/c/users/isaacstalley/documents/github/libopencm3/lib/libopencm3_stm32f4.a(gpio_common_f0234.o)
 .debug_macro   0x0000000000000000       0xe8 /mnt/c/users/isaacstalley/documents/github/libopencm3/lib/libopencm3_stm32f4.a(gpio_common_f0234.o)
 .debug_macro   0x0000000000000000       0x76 /mnt/c/users/isaacstalley/documents/github/libopencm3/lib/libopencm3_stm32f4.a(gpio_common_f0234.o)
 .debug_macro   0x0000000000000000      0x280 /mnt/c/users/isaacstalley/documents/github/libopencm3/lib/libopencm3_stm32f4.a(gpio_common_f0234.o)
 .debug_macro   0x0000000000000000       0x76 /mnt/c/users/isaacstalley/documents/github/libopencm3/lib/libopencm3_stm32f4.a(gpio_common_f0234.o)
 .debug_macro   0x0000000000000000      0x37e /mnt/c/users/isaacstalley/documents/github/libopencm3/lib/libopencm3_stm32f4.a(gpio_common_f0234.o)
 .debug_macro   0x0000000000000000       0xca /mnt/c/users/isaacstalley/documents/github/libopencm3/lib/libopencm3_stm32f4.a(gpio_common_f0234.o)
 .group         0x0000000000000000        0xc /mnt/c/users/isaacstalley/documents/github/libopencm3/lib/libopencm3_stm32f4.a(rcc_common_all.o)
 .group         0x0000000000000000        0xc /mnt/c/users/isaacstalley/documents/github/libopencm3/lib/libopencm3_stm32f4.a(rcc_common_all.o)
 .group         0x0000000000000000        0xc /mnt/c/users/isaacstalley/documents/github/libopencm3/lib/libopencm3_stm32f4.a(rcc_common_all.o)
 .group         0x0000000000000000        0xc /mnt/c/users/isaacstalley/documents/github/libopencm3/lib/libopencm3_stm32f4.a(rcc_common_all.o)
 .group         0x0000000000000000        0xc /mnt/c/users/isaacstalley/documents/github/libopencm3/lib/libopencm3_stm32f4.a(rcc_common_all.o)
 .group         0x0000000000000000        0xc /mnt/c/users/isaacstalley/documents/github/libopencm3/lib/libopencm3_stm32f4.a(rcc_common_all.o)
 .group         0x0000000000000000        0xc /mnt/c/users/isaacstalley/documents/github/libopencm3/lib/libopencm3_stm32f4.a(rcc_common_all.o)
 .group         0x0000000000000000        0xc /mnt/c/users/isaacstalley/documents/github/libopencm3/lib/libopencm3_stm32f4.a(rcc_common_all.o)
 .group         0x0000000000000000        0xc /mnt/c/users/isaacstalley/documents/github/libopencm3/lib/libopencm3_stm32f4.a(rcc_common_all.o)
 .group         0x0000000000000000        0xc /mnt/c/users/isaacstalley/documents/github/libopencm3/lib/libopencm3_stm32f4.a(rcc_common_all.o)
 .text          0x0000000000000000        0x0 /mnt/c/users/isaacstalley/documents/github/libopencm3/lib/libopencm3_stm32f4.a(rcc_common_all.o)
 .data          0x0000000000000000        0x0 /mnt/c/users/isaacstalley/documents/github/libopencm3/lib/libopencm3_stm32f4.a(rcc_common_all.o)
 .bss           0x0000000000000000        0x0 /mnt/c/users/isaacstalley/documents/github/libopencm3/lib/libopencm3_stm32f4.a(rcc_common_all.o)
 .text.rcc_peripheral_enable_clock
                0x0000000000000000        0x8 /mnt/c/users/isaacstalley/documents/github/libopencm3/lib/libopencm3_stm32f4.a(rcc_common_all.o)
 .text.rcc_peripheral_disable_clock
                0x0000000000000000        0xa /mnt/c/users/isaacstalley/documents/github/libopencm3/lib/libopencm3_stm32f4.a(rcc_common_all.o)
 .text.rcc_peripheral_reset
                0x0000000000000000        0x8 /mnt/c/users/isaacstalley/documents/github/libopencm3/lib/libopencm3_stm32f4.a(rcc_common_all.o)
 .text.rcc_peripheral_clear_reset
                0x0000000000000000        0xa /mnt/c/users/isaacstalley/documents/github/libopencm3/lib/libopencm3_stm32f4.a(rcc_common_all.o)
 .text.rcc_periph_clock_disable
                0x0000000000000000       0x1e /mnt/c/users/isaacstalley/documents/github/libopencm3/lib/libopencm3_stm32f4.a(rcc_common_all.o)
 .text.rcc_periph_reset_pulse
                0x0000000000000000       0x24 /mnt/c/users/isaacstalley/documents/github/libopencm3/lib/libopencm3_stm32f4.a(rcc_common_all.o)
 .text.rcc_periph_reset_hold
                0x0000000000000000        0x4 /mnt/c/users/isaacstalley/documents/github/libopencm3/lib/libopencm3_stm32f4.a(rcc_common_all.o)
 .text.rcc_periph_reset_release
                0x0000000000000000        0x4 /mnt/c/users/isaacstalley/documents/github/libopencm3/lib/libopencm3_stm32f4.a(rcc_common_all.o)
 .text.rcc_set_mco
                0x0000000000000000       0x18 /mnt/c/users/isaacstalley/documents/github/libopencm3/lib/libopencm3_stm32f4.a(rcc_common_all.o)
 .text.rcc_osc_bypass_enable
                0x0000000000000000       0x30 /mnt/c/users/isaacstalley/documents/github/libopencm3/lib/libopencm3_stm32f4.a(rcc_common_all.o)
 .text.rcc_osc_bypass_disable
                0x0000000000000000       0x30 /mnt/c/users/isaacstalley/documents/github/libopencm3/lib/libopencm3_stm32f4.a(rcc_common_all.o)
 .text.rcc_get_div_from_hpre
                0x0000000000000000       0x1c /mnt/c/users/isaacstalley/documents/github/libopencm3/lib/libopencm3_stm32f4.a(rcc_common_all.o)
 .debug_macro   0x0000000000000000      0xa6c /mnt/c/users/isaacstalley/documents/github/libopencm3/lib/libopencm3_stm32f4.a(rcc_common_all.o)
 .debug_macro   0x0000000000000000       0x1c /mnt/c/users/isaacstalley/documents/github/libopencm3/lib/libopencm3_stm32f4.a(rcc_common_all.o)
 .debug_macro   0x0000000000000000      0x34e /mnt/c/users/isaacstalley/documents/github/libopencm3/lib/libopencm3_stm32f4.a(rcc_common_all.o)
 .debug_macro   0x0000000000000000       0x22 /mnt/c/users/isaacstalley/documents/github/libopencm3/lib/libopencm3_stm32f4.a(rcc_common_all.o)
 .debug_macro   0x0000000000000000       0xe8 /mnt/c/users/isaacstalley/documents/github/libopencm3/lib/libopencm3_stm32f4.a(rcc_common_all.o)
 .debug_macro   0x0000000000000000       0x76 /mnt/c/users/isaacstalley/documents/github/libopencm3/lib/libopencm3_stm32f4.a(rcc_common_all.o)
 .debug_macro   0x0000000000000000      0x280 /mnt/c/users/isaacstalley/documents/github/libopencm3/lib/libopencm3_stm32f4.a(rcc_common_all.o)
 .group         0x0000000000000000        0xc /mnt/c/users/isaacstalley/documents/github/libopencm3/lib/libopencm3_stm32f4.a(rcc.o)
 .group         0x0000000000000000        0xc /mnt/c/users/isaacstalley/documents/github/libopencm3/lib/libopencm3_stm32f4.a(rcc.o)
 .group         0x0000000000000000        0xc /mnt/c/users/isaacstalley/documents/github/libopencm3/lib/libopencm3_stm32f4.a(rcc.o)
 .group         0x0000000000000000        0xc /mnt/c/users/isaacstalley/documents/github/libopencm3/lib/libopencm3_stm32f4.a(rcc.o)
 .group         0x0000000000000000        0xc /mnt/c/users/isaacstalley/documents/github/libopencm3/lib/libopencm3_stm32f4.a(rcc.o)
 .group         0x0000000000000000        0xc /mnt/c/users/isaacstalley/documents/github/libopencm3/lib/libopencm3_stm32f4.a(rcc.o)
 .group         0x0000000000000000        0xc /mnt/c/users/isaacstalley/documents/github/libopencm3/lib/libopencm3_stm32f4.a(rcc.o)
 .group         0x0000000000000000        0xc /mnt/c/users/isaacstalley/documents/github/libopencm3/lib/libopencm3_stm32f4.a(rcc.o)
 .group         0x0000000000000000        0xc /mnt/c/users/isaacstalley/documents/github/libopencm3/lib/libopencm3_stm32f4.a(rcc.o)
 .group         0x0000000000000000        0xc /mnt/c/users/isaacstalley/documents/github/libopencm3/lib/libopencm3_stm32f4.a(rcc.o)
 .group         0x0000000000000000        0xc /mnt/c/users/isaacstalley/documents/github/libopencm3/lib/libopencm3_stm32f4.a(rcc.o)
 .group         0x0000000000000000        0xc /mnt/c/users/isaacstalley/documents/github/libopencm3/lib/libopencm3_stm32f4.a(rcc.o)
 .group         0x0000000000000000        0xc /mnt/c/users/isaacstalley/documents/github/libopencm3/lib/libopencm3_stm32f4.a(rcc.o)
 .group         0x0000000000000000        0xc /mnt/c/users/isaacstalley/documents/github/libopencm3/lib/libopencm3_stm32f4.a(rcc.o)
 .text          0x0000000000000000        0x0 /mnt/c/users/isaacstalley/documents/github/libopencm3/lib/libopencm3_stm32f4.a(rcc.o)
 .data          0x0000000000000000        0x0 /mnt/c/users/isaacstalley/documents/github/libopencm3/lib/libopencm3_stm32f4.a(rcc.o)
 .bss           0x0000000000000000        0x0 /mnt/c/users/isaacstalley/documents/github/libopencm3/lib/libopencm3_stm32f4.a(rcc.o)
 .text.rcc_osc_ready_int_clear
                0x0000000000000000       0x6c /mnt/c/users/isaacstalley/documents/github/libopencm3/lib/libopencm3_stm32f4.a(rcc.o)
 .text.rcc_osc_ready_int_enable
                0x0000000000000000       0x6c /mnt/c/users/isaacstalley/documents/github/libopencm3/lib/libopencm3_stm32f4.a(rcc.o)
 .text.rcc_osc_ready_int_disable
                0x0000000000000000       0x6c /mnt/c/users/isaacstalley/documents/github/libopencm3/lib/libopencm3_stm32f4.a(rcc.o)
 .text.rcc_osc_ready_int_flag
                0x0000000000000000       0x6c /mnt/c/users/isaacstalley/documents/github/libopencm3/lib/libopencm3_stm32f4.a(rcc.o)
 .text.rcc_css_int_clear
                0x0000000000000000       0x14 /mnt/c/users/isaacstalley/documents/github/libopencm3/lib/libopencm3_stm32f4.a(rcc.o)
 .text.rcc_css_int_flag
                0x0000000000000000       0x10 /mnt/c/users/isaacstalley/documents/github/libopencm3/lib/libopencm3_stm32f4.a(rcc.o)
 .text.rcc_wait_for_sysclk_status
                0x0000000000000000       0x40 /mnt/c/users/isaacstalley/documents/github/libopencm3/lib/libopencm3_stm32f4.a(rcc.o)
 .text.rcc_css_enable
                0x0000000000000000       0x14 /mnt/c/users/isaacstalley/documents/github/libopencm3/lib/libopencm3_stm32f4.a(rcc.o)
 .text.rcc_css_disable
                0x0000000000000000       0x14 /mnt/c/users/isaacstalley/documents/github/libopencm3/lib/libopencm3_stm32f4.a(rcc.o)
 .text.rcc_plli2s_config
                0x0000000000000000       0x1c /mnt/c/users/isaacstalley/documents/github/libopencm3/lib/libopencm3_stm32f4.a(rcc.o)
 .text.rcc_pllsai_config
                0x0000000000000000       0x2c /mnt/c/users/isaacstalley/documents/github/libopencm3/lib/libopencm3_stm32f4.a(rcc.o)
 .text.rcc_pllsai_postscalers
                0x0000000000000000       0x28 /mnt/c/users/isaacstalley/documents/github/libopencm3/lib/libopencm3_stm32f4.a(rcc.o)
 .text.rcc_set_pll_source
                0x0000000000000000       0x18 /mnt/c/users/isaacstalley/documents/github/libopencm3/lib/libopencm3_stm32f4.a(rcc.o)
 .text.rcc_set_rtcpre
                0x0000000000000000       0x18 /mnt/c/users/isaacstalley/documents/github/libopencm3/lib/libopencm3_stm32f4.a(rcc.o)
 .text.rcc_system_clock_source
                0x0000000000000000       0x10 /mnt/c/users/isaacstalley/documents/github/libopencm3/lib/libopencm3_stm32f4.a(rcc.o)
 .text.rcc_clock_setup_hse_3v3
                0x0000000000000000        0x4 /mnt/c/users/isaacstalley/documents/github/libopencm3/lib/libopencm3_stm32f4.a(rcc.o)
 .text.rcc_get_usart_clk_freq
                0x0000000000000000       0x20 /mnt/c/users/isaacstalley/documents/github/libopencm3/lib/libopencm3_stm32f4.a(rcc.o)
 .text.rcc_get_timer_clk_freq
                0x0000000000000000       0x34 /mnt/c/users/isaacstalley/documents/github/libopencm3/lib/libopencm3_stm32f4.a(rcc.o)
 .text.rcc_get_i2c_clk_freq
                0x0000000000000000        0xc /mnt/c/users/isaacstalley/documents/github/libopencm3/lib/libopencm3_stm32f4.a(rcc.o)
 .text.rcc_get_spi_clk_freq
                0x0000000000000000       0x20 /mnt/c/users/isaacstalley/documents/github/libopencm3/lib/libopencm3_stm32f4.a(rcc.o)
 .rodata.rcc_hse_12mhz_3v3
                0x0000000000000000       0x70 /mnt/c/users/isaacstalley/documents/github/libopencm3/lib/libopencm3_stm32f4.a(rcc.o)
 .rodata.rcc_hse_16mhz_3v3
                0x0000000000000000       0x70 /mnt/c/users/isaacstalley/documents/github/libopencm3/lib/libopencm3_stm32f4.a(rcc.o)
 .rodata.rcc_hse_25mhz_3v3
                0x0000000000000000       0x70 /mnt/c/users/isaacstalley/documents/github/libopencm3/lib/libopencm3_stm32f4.a(rcc.o)
 .rodata.rcc_hsi_configs
                0x0000000000000000       0x70 /mnt/c/users/isaacstalley/documents/github/libopencm3/lib/libopencm3_stm32f4.a(rcc.o)
 .debug_macro   0x0000000000000000      0xa6c /mnt/c/users/isaacstalley/documents/github/libopencm3/lib/libopencm3_stm32f4.a(rcc.o)
 .debug_macro   0x0000000000000000       0x1c /mnt/c/users/isaacstalley/documents/github/libopencm3/lib/libopencm3_stm32f4.a(rcc.o)
 .debug_macro   0x0000000000000000      0x34e /mnt/c/users/isaacstalley/documents/github/libopencm3/lib/libopencm3_stm32f4.a(rcc.o)
 .debug_macro   0x0000000000000000       0x22 /mnt/c/users/isaacstalley/documents/github/libopencm3/lib/libopencm3_stm32f4.a(rcc.o)
 .debug_macro   0x0000000000000000       0xe8 /mnt/c/users/isaacstalley/documents/github/libopencm3/lib/libopencm3_stm32f4.a(rcc.o)
 .debug_macro   0x0000000000000000       0x76 /mnt/c/users/isaacstalley/documents/github/libopencm3/lib/libopencm3_stm32f4.a(rcc.o)
 .debug_macro   0x0000000000000000      0x280 /mnt/c/users/isaacstalley/documents/github/libopencm3/lib/libopencm3_stm32f4.a(rcc.o)
 .debug_macro   0x0000000000000000       0x8e /mnt/c/users/isaacstalley/documents/github/libopencm3/lib/libopencm3_stm32f4.a(rcc.o)
 .debug_macro   0x0000000000000000       0x46 /mnt/c/users/isaacstalley/documents/github/libopencm3/lib/libopencm3_stm32f4.a(rcc.o)
 .debug_macro   0x0000000000000000      0xcea /mnt/c/users/isaacstalley/documents/github/libopencm3/lib/libopencm3_stm32f4.a(rcc.o)
 .group         0x0000000000000000        0xc /mnt/c/users/isaacstalley/documents/github/libopencm3/lib/libopencm3_stm32f4.a(spi_common_all.o)
 .group         0x0000000000000000        0xc /mnt/c/users/isaacstalley/documents/github/libopencm3/lib/libopencm3_stm32f4.a(spi_common_all.o)
 .group         0x0000000000000000        0xc /mnt/c/users/isaacstalley/documents/github/libopencm3/lib/libopencm3_stm32f4.a(spi_common_all.o)
 .group         0x0000000000000000        0xc /mnt/c/users/isaacstalley/documents/github/libopencm3/lib/libopencm3_stm32f4.a(spi_common_all.o)
 .group         0x0000000000000000        0xc /mnt/c/users/isaacstalley/documents/github/libopencm3/lib/libopencm3_stm32f4.a(spi_common_all.o)
 .group         0x0000000000000000        0xc /mnt/c/users/isaacstalley/documents/github/libopencm3/lib/libopencm3_stm32f4.a(spi_common_all.o)
 .group         0x0000000000000000        0xc /mnt/c/users/isaacstalley/documents/github/libopencm3/lib/libopencm3_stm32f4.a(spi_common_all.o)
 .group         0x0000000000000000        0xc /mnt/c/users/isaacstalley/documents/github/libopencm3/lib/libopencm3_stm32f4.a(spi_common_all.o)
 .group         0x0000000000000000        0xc /mnt/c/users/isaacstalley/documents/github/libopencm3/lib/libopencm3_stm32f4.a(spi_common_all.o)
 .group         0x0000000000000000        0xc /mnt/c/users/isaacstalley/documents/github/libopencm3/lib/libopencm3_stm32f4.a(spi_common_all.o)
 .group         0x0000000000000000        0xc /mnt/c/users/isaacstalley/documents/github/libopencm3/lib/libopencm3_stm32f4.a(spi_common_all.o)
 .group         0x0000000000000000        0xc /mnt/c/users/isaacstalley/documents/github/libopencm3/lib/libopencm3_stm32f4.a(spi_common_all.o)
 .group         0x0000000000000000        0xc /mnt/c/users/isaacstalley/documents/github/libopencm3/lib/libopencm3_stm32f4.a(spi_common_all.o)
 .text          0x0000000000000000        0x0 /mnt/c/users/isaacstalley/documents/github/libopencm3/lib/libopencm3_stm32f4.a(spi_common_all.o)
 .data          0x0000000000000000        0x0 /mnt/c/users/isaacstalley/documents/github/libopencm3/lib/libopencm3_stm32f4.a(spi_common_all.o)
 .bss           0x0000000000000000        0x0 /mnt/c/users/isaacstalley/documents/github/libopencm3/lib/libopencm3_stm32f4.a(spi_common_all.o)
 .text.spi_disable
                0x0000000000000000        0xa /mnt/c/users/isaacstalley/documents/github/libopencm3/lib/libopencm3_stm32f4.a(spi_common_all.o)
 .text.spi_clean_disable
                0x0000000000000000       0x26 /mnt/c/users/isaacstalley/documents/github/libopencm3/lib/libopencm3_stm32f4.a(spi_common_all.o)
 .text.spi_write
                0x0000000000000000        0x4 /mnt/c/users/isaacstalley/documents/github/libopencm3/lib/libopencm3_stm32f4.a(spi_common_all.o)
 .text.spi_set_bidirectional_mode
                0x0000000000000000        0xa /mnt/c/users/isaacstalley/documents/github/libopencm3/lib/libopencm3_stm32f4.a(spi_common_all.o)
 .text.spi_set_unidirectional_mode
                0x0000000000000000        0xa /mnt/c/users/isaacstalley/documents/github/libopencm3/lib/libopencm3_stm32f4.a(spi_common_all.o)
 .text.spi_set_bidirectional_receive_only_mode
                0x0000000000000000       0x12 /mnt/c/users/isaacstalley/documents/github/libopencm3/lib/libopencm3_stm32f4.a(spi_common_all.o)
 .text.spi_set_bidirectional_transmit_only_mode
                0x0000000000000000       0x12 /mnt/c/users/isaacstalley/documents/github/libopencm3/lib/libopencm3_stm32f4.a(spi_common_all.o)
 .text.spi_enable_crc
                0x0000000000000000        0xa /mnt/c/users/isaacstalley/documents/github/libopencm3/lib/libopencm3_stm32f4.a(spi_common_all.o)
 .text.spi_disable_crc
                0x0000000000000000        0xa /mnt/c/users/isaacstalley/documents/github/libopencm3/lib/libopencm3_stm32f4.a(spi_common_all.o)
 .text.spi_set_next_tx_from_buffer
                0x0000000000000000        0xa /mnt/c/users/isaacstalley/documents/github/libopencm3/lib/libopencm3_stm32f4.a(spi_common_all.o)
 .text.spi_set_next_tx_from_crc
                0x0000000000000000        0xa /mnt/c/users/isaacstalley/documents/github/libopencm3/lib/libopencm3_stm32f4.a(spi_common_all.o)
 .text.spi_set_full_duplex_mode
                0x0000000000000000        0xa /mnt/c/users/isaacstalley/documents/github/libopencm3/lib/libopencm3_stm32f4.a(spi_common_all.o)
 .text.spi_set_receive_only_mode
                0x0000000000000000        0xa /mnt/c/users/isaacstalley/documents/github/libopencm3/lib/libopencm3_stm32f4.a(spi_common_all.o)
 .text.spi_disable_software_slave_management
                0x0000000000000000        0xa /mnt/c/users/isaacstalley/documents/github/libopencm3/lib/libopencm3_stm32f4.a(spi_common_all.o)
 .text.spi_enable_software_slave_management
                0x0000000000000000       0x12 /mnt/c/users/isaacstalley/documents/github/libopencm3/lib/libopencm3_stm32f4.a(spi_common_all.o)
 .text.spi_set_nss_high
                0x0000000000000000        0xa /mnt/c/users/isaacstalley/documents/github/libopencm3/lib/libopencm3_stm32f4.a(spi_common_all.o)
 .text.spi_set_nss_low
                0x0000000000000000        0xa /mnt/c/users/isaacstalley/documents/github/libopencm3/lib/libopencm3_stm32f4.a(spi_common_all.o)
 .text.spi_send_lsb_first
                0x0000000000000000        0xa /mnt/c/users/isaacstalley/documents/github/libopencm3/lib/libopencm3_stm32f4.a(spi_common_all.o)
 .text.spi_send_msb_first
                0x0000000000000000        0xa /mnt/c/users/isaacstalley/documents/github/libopencm3/lib/libopencm3_stm32f4.a(spi_common_all.o)
 .text.spi_set_baudrate_prescaler
                0x0000000000000000       0x16 /mnt/c/users/isaacstalley/documents/github/libopencm3/lib/libopencm3_stm32f4.a(spi_common_all.o)
 .text.spi_set_master_mode
                0x0000000000000000        0xa /mnt/c/users/isaacstalley/documents/github/libopencm3/lib/libopencm3_stm32f4.a(spi_common_all.o)
 .text.spi_set_slave_mode
                0x0000000000000000        0xa /mnt/c/users/isaacstalley/documents/github/libopencm3/lib/libopencm3_stm32f4.a(spi_common_all.o)
 .text.spi_set_clock_polarity_1
                0x0000000000000000        0xa /mnt/c/users/isaacstalley/documents/github/libopencm3/lib/libopencm3_stm32f4.a(spi_common_all.o)
 .text.spi_set_clock_polarity_0
                0x0000000000000000        0xa /mnt/c/users/isaacstalley/documents/github/libopencm3/lib/libopencm3_stm32f4.a(spi_common_all.o)
 .text.spi_set_clock_phase_1
                0x0000000000000000        0xa /mnt/c/users/isaacstalley/documents/github/libopencm3/lib/libopencm3_stm32f4.a(spi_common_all.o)
 .text.spi_set_clock_phase_0
                0x0000000000000000        0xa /mnt/c/users/isaacstalley/documents/github/libopencm3/lib/libopencm3_stm32f4.a(spi_common_all.o)
 .text.spi_enable_tx_buffer_empty_interrupt
                0x0000000000000000        0xa /mnt/c/users/isaacstalley/documents/github/libopencm3/lib/libopencm3_stm32f4.a(spi_common_all.o)
 .text.spi_disable_tx_buffer_empty_interrupt
                0x0000000000000000        0xa /mnt/c/users/isaacstalley/documents/github/libopencm3/lib/libopencm3_stm32f4.a(spi_common_all.o)
 .text.spi_enable_rx_buffer_not_empty_interrupt
                0x0000000000000000        0xa /mnt/c/users/isaacstalley/documents/github/libopencm3/lib/libopencm3_stm32f4.a(spi_common_all.o)
 .text.spi_disable_rx_buffer_not_empty_interrupt
                0x0000000000000000        0xa /mnt/c/users/isaacstalley/documents/github/libopencm3/lib/libopencm3_stm32f4.a(spi_common_all.o)
 .text.spi_enable_error_interrupt
                0x0000000000000000        0xa /mnt/c/users/isaacstalley/documents/github/libopencm3/lib/libopencm3_stm32f4.a(spi_common_all.o)
 .text.spi_disable_error_interrupt
                0x0000000000000000        0xa /mnt/c/users/isaacstalley/documents/github/libopencm3/lib/libopencm3_stm32f4.a(spi_common_all.o)
 .text.spi_disable_ss_output
                0x0000000000000000        0xa /mnt/c/users/isaacstalley/documents/github/libopencm3/lib/libopencm3_stm32f4.a(spi_common_all.o)
 .text.spi_enable_tx_dma
                0x0000000000000000        0xa /mnt/c/users/isaacstalley/documents/github/libopencm3/lib/libopencm3_stm32f4.a(spi_common_all.o)
 .text.spi_disable_tx_dma
                0x0000000000000000        0xa /mnt/c/users/isaacstalley/documents/github/libopencm3/lib/libopencm3_stm32f4.a(spi_common_all.o)
 .text.spi_enable_rx_dma
                0x0000000000000000        0xa /mnt/c/users/isaacstalley/documents/github/libopencm3/lib/libopencm3_stm32f4.a(spi_common_all.o)
 .text.spi_disable_rx_dma
                0x0000000000000000        0xa /mnt/c/users/isaacstalley/documents/github/libopencm3/lib/libopencm3_stm32f4.a(spi_common_all.o)
 .text.spi_set_standard_mode
                0x0000000000000000       0x10 /mnt/c/users/isaacstalley/documents/github/libopencm3/lib/libopencm3_stm32f4.a(spi_common_all.o)
 .debug_macro   0x0000000000000000      0xa6c /mnt/c/users/isaacstalley/documents/github/libopencm3/lib/libopencm3_stm32f4.a(spi_common_all.o)
 .debug_macro   0x0000000000000000       0x1c /mnt/c/users/isaacstalley/documents/github/libopencm3/lib/libopencm3_stm32f4.a(spi_common_all.o)
 .debug_macro   0x0000000000000000      0x34e /mnt/c/users/isaacstalley/documents/github/libopencm3/lib/libopencm3_stm32f4.a(spi_common_all.o)
 .debug_macro   0x0000000000000000       0x22 /mnt/c/users/isaacstalley/documents/github/libopencm3/lib/libopencm3_stm32f4.a(spi_common_all.o)
 .debug_macro   0x0000000000000000       0xe8 /mnt/c/users/isaacstalley/documents/github/libopencm3/lib/libopencm3_stm32f4.a(spi_common_all.o)
 .debug_macro   0x0000000000000000       0x76 /mnt/c/users/isaacstalley/documents/github/libopencm3/lib/libopencm3_stm32f4.a(spi_common_all.o)
 .debug_macro   0x0000000000000000      0x280 /mnt/c/users/isaacstalley/documents/github/libopencm3/lib/libopencm3_stm32f4.a(spi_common_all.o)
 .debug_macro   0x0000000000000000       0x8e /mnt/c/users/isaacstalley/documents/github/libopencm3/lib/libopencm3_stm32f4.a(spi_common_all.o)
 .debug_macro   0x0000000000000000       0x46 /mnt/c/users/isaacstalley/documents/github/libopencm3/lib/libopencm3_stm32f4.a(spi_common_all.o)
 .debug_macro   0x0000000000000000      0xcea /mnt/c/users/isaacstalley/documents/github/libopencm3/lib/libopencm3_stm32f4.a(spi_common_all.o)
 .group         0x0000000000000000        0xc /mnt/c/users/isaacstalley/documents/github/libopencm3/lib/libopencm3_stm32f4.a(spi_common_v1.o)
 .group         0x0000000000000000        0xc /mnt/c/users/isaacstalley/documents/github/libopencm3/lib/libopencm3_stm32f4.a(spi_common_v1.o)
 .group         0x0000000000000000        0xc /mnt/c/users/isaacstalley/documents/github/libopencm3/lib/libopencm3_stm32f4.a(spi_common_v1.o)
 .group         0x0000000000000000        0xc /mnt/c/users/isaacstalley/documents/github/libopencm3/lib/libopencm3_stm32f4.a(spi_common_v1.o)
 .group         0x0000000000000000        0xc /mnt/c/users/isaacstalley/documents/github/libopencm3/lib/libopencm3_stm32f4.a(spi_common_v1.o)
 .group         0x0000000000000000        0xc /mnt/c/users/isaacstalley/documents/github/libopencm3/lib/libopencm3_stm32f4.a(spi_common_v1.o)
 .group         0x0000000000000000        0xc /mnt/c/users/isaacstalley/documents/github/libopencm3/lib/libopencm3_stm32f4.a(spi_common_v1.o)
 .group         0x0000000000000000        0xc /mnt/c/users/isaacstalley/documents/github/libopencm3/lib/libopencm3_stm32f4.a(spi_common_v1.o)
 .group         0x0000000000000000        0xc /mnt/c/users/isaacstalley/documents/github/libopencm3/lib/libopencm3_stm32f4.a(spi_common_v1.o)
 .group         0x0000000000000000        0xc /mnt/c/users/isaacstalley/documents/github/libopencm3/lib/libopencm3_stm32f4.a(spi_common_v1.o)
 .group         0x0000000000000000        0xc /mnt/c/users/isaacstalley/documents/github/libopencm3/lib/libopencm3_stm32f4.a(spi_common_v1.o)
 .group         0x0000000000000000        0xc /mnt/c/users/isaacstalley/documents/github/libopencm3/lib/libopencm3_stm32f4.a(spi_common_v1.o)
 .group         0x0000000000000000        0xc /mnt/c/users/isaacstalley/documents/github/libopencm3/lib/libopencm3_stm32f4.a(spi_common_v1.o)
 .text          0x0000000000000000        0x0 /mnt/c/users/isaacstalley/documents/github/libopencm3/lib/libopencm3_stm32f4.a(spi_common_v1.o)
 .data          0x0000000000000000        0x0 /mnt/c/users/isaacstalley/documents/github/libopencm3/lib/libopencm3_stm32f4.a(spi_common_v1.o)
 .bss           0x0000000000000000        0x0 /mnt/c/users/isaacstalley/documents/github/libopencm3/lib/libopencm3_stm32f4.a(spi_common_v1.o)
 .text.spi_set_dff_8bit
                0x0000000000000000        0xa /mnt/c/users/isaacstalley/documents/github/libopencm3/lib/libopencm3_stm32f4.a(spi_common_v1.o)
 .text.spi_set_dff_16bit
                0x0000000000000000        0xa /mnt/c/users/isaacstalley/documents/github/libopencm3/lib/libopencm3_stm32f4.a(spi_common_v1.o)
 .debug_macro   0x0000000000000000      0xa6c /mnt/c/users/isaacstalley/documents/github/libopencm3/lib/libopencm3_stm32f4.a(spi_common_v1.o)
 .debug_macro   0x0000000000000000       0x1c /mnt/c/users/isaacstalley/documents/github/libopencm3/lib/libopencm3_stm32f4.a(spi_common_v1.o)
 .debug_macro   0x0000000000000000      0x34e /mnt/c/users/isaacstalley/documents/github/libopencm3/lib/libopencm3_stm32f4.a(spi_common_v1.o)
 .debug_macro   0x0000000000000000       0x22 /mnt/c/users/isaacstalley/documents/github/libopencm3/lib/libopencm3_stm32f4.a(spi_common_v1.o)
 .debug_macro   0x0000000000000000       0xe8 /mnt/c/users/isaacstalley/documents/github/libopencm3/lib/libopencm3_stm32f4.a(spi_common_v1.o)
 .debug_macro   0x0000000000000000       0x76 /mnt/c/users/isaacstalley/documents/github/libopencm3/lib/libopencm3_stm32f4.a(spi_common_v1.o)
 .debug_macro   0x0000000000000000      0x280 /mnt/c/users/isaacstalley/documents/github/libopencm3/lib/libopencm3_stm32f4.a(spi_common_v1.o)
 .debug_macro   0x0000000000000000      0x2eb /mnt/c/users/isaacstalley/documents/github/libopencm3/lib/libopencm3_stm32f4.a(spi_common_v1.o)
 .debug_macro   0x0000000000000000       0x16 /mnt/c/users/isaacstalley/documents/github/libopencm3/lib/libopencm3_stm32f4.a(spi_common_v1.o)
 .debug_macro   0x0000000000000000       0x22 /mnt/c/users/isaacstalley/documents/github/libopencm3/lib/libopencm3_stm32f4.a(spi_common_v1.o)
 .debug_macro   0x0000000000000000       0x8e /mnt/c/users/isaacstalley/documents/github/libopencm3/lib/libopencm3_stm32f4.a(spi_common_v1.o)
 .debug_macro   0x0000000000000000       0x46 /mnt/c/users/isaacstalley/documents/github/libopencm3/lib/libopencm3_stm32f4.a(spi_common_v1.o)
 .debug_macro   0x0000000000000000      0xcea /mnt/c/users/isaacstalley/documents/github/libopencm3/lib/libopencm3_stm32f4.a(spi_common_v1.o)
 .group         0x0000000000000000        0xc /mnt/c/users/isaacstalley/documents/github/libopencm3/lib/libopencm3_stm32f4.a(usb.o)
 .group         0x0000000000000000        0xc /mnt/c/users/isaacstalley/documents/github/libopencm3/lib/libopencm3_stm32f4.a(usb.o)
 .group         0x0000000000000000        0xc /mnt/c/users/isaacstalley/documents/github/libopencm3/lib/libopencm3_stm32f4.a(usb.o)
 .group         0x0000000000000000        0xc /mnt/c/users/isaacstalley/documents/github/libopencm3/lib/libopencm3_stm32f4.a(usb.o)
 .group         0x0000000000000000        0xc /mnt/c/users/isaacstalley/documents/github/libopencm3/lib/libopencm3_stm32f4.a(usb.o)
 .group         0x0000000000000000        0xc /mnt/c/users/isaacstalley/documents/github/libopencm3/lib/libopencm3_stm32f4.a(usb.o)
 .group         0x0000000000000000        0xc /mnt/c/users/isaacstalley/documents/github/libopencm3/lib/libopencm3_stm32f4.a(usb.o)
 .group         0x0000000000000000        0xc /mnt/c/users/isaacstalley/documents/github/libopencm3/lib/libopencm3_stm32f4.a(usb.o)
 .group         0x0000000000000000        0xc /mnt/c/users/isaacstalley/documents/github/libopencm3/lib/libopencm3_stm32f4.a(usb.o)
 .group         0x0000000000000000        0xc /mnt/c/users/isaacstalley/documents/github/libopencm3/lib/libopencm3_stm32f4.a(usb.o)
 .group         0x0000000000000000        0xc /mnt/c/users/isaacstalley/documents/github/libopencm3/lib/libopencm3_stm32f4.a(usb.o)
 .group         0x0000000000000000        0xc /mnt/c/users/isaacstalley/documents/github/libopencm3/lib/libopencm3_stm32f4.a(usb.o)
 .group         0x0000000000000000        0xc /mnt/c/users/isaacstalley/documents/github/libopencm3/lib/libopencm3_stm32f4.a(usb.o)
 .group         0x0000000000000000        0xc /mnt/c/users/isaacstalley/documents/github/libopencm3/lib/libopencm3_stm32f4.a(usb.o)
 .group         0x0000000000000000        0xc /mnt/c/users/isaacstalley/documents/github/libopencm3/lib/libopencm3_stm32f4.a(usb.o)
 .group         0x0000000000000000        0xc /mnt/c/users/isaacstalley/documents/github/libopencm3/lib/libopencm3_stm32f4.a(usb.o)
 .group         0x0000000000000000        0xc /mnt/c/users/isaacstalley/documents/github/libopencm3/lib/libopencm3_stm32f4.a(usb.o)
 .group         0x0000000000000000        0xc /mnt/c/users/isaacstalley/documents/github/libopencm3/lib/libopencm3_stm32f4.a(usb.o)
 .group         0x0000000000000000        0xc /mnt/c/users/isaacstalley/documents/github/libopencm3/lib/libopencm3_stm32f4.a(usb.o)
 .group         0x0000000000000000        0xc /mnt/c/users/isaacstalley/documents/github/libopencm3/lib/libopencm3_stm32f4.a(usb.o)
 .group         0x0000000000000000        0xc /mnt/c/users/isaacstalley/documents/github/libopencm3/lib/libopencm3_stm32f4.a(usb.o)
 .group         0x0000000000000000        0xc /mnt/c/users/isaacstalley/documents/github/libopencm3/lib/libopencm3_stm32f4.a(usb.o)
 .group         0x0000000000000000        0xc /mnt/c/users/isaacstalley/documents/github/libopencm3/lib/libopencm3_stm32f4.a(usb.o)
 .group         0x0000000000000000        0xc /mnt/c/users/isaacstalley/documents/github/libopencm3/lib/libopencm3_stm32f4.a(usb.o)
 .group         0x0000000000000000        0xc /mnt/c/users/isaacstalley/documents/github/libopencm3/lib/libopencm3_stm32f4.a(usb.o)
 .text          0x0000000000000000        0x0 /mnt/c/users/isaacstalley/documents/github/libopencm3/lib/libopencm3_stm32f4.a(usb.o)
 .data          0x0000000000000000        0x0 /mnt/c/users/isaacstalley/documents/github/libopencm3/lib/libopencm3_stm32f4.a(usb.o)
 .bss           0x0000000000000000        0x0 /mnt/c/users/isaacstalley/documents/github/libopencm3/lib/libopencm3_stm32f4.a(usb.o)
 .text.usbd_register_reset_callback
                0x0000000000000000        0x4 /mnt/c/users/isaacstalley/documents/github/libopencm3/lib/libopencm3_stm32f4.a(usb.o)
 .text.usbd_register_suspend_callback
                0x0000000000000000        0x4 /mnt/c/users/isaacstalley/documents/github/libopencm3/lib/libopencm3_stm32f4.a(usb.o)
 .text.usbd_register_resume_callback
                0x0000000000000000        0x4 /mnt/c/users/isaacstalley/documents/github/libopencm3/lib/libopencm3_stm32f4.a(usb.o)
 .text.usbd_register_sof_callback
                0x0000000000000000        0x4 /mnt/c/users/isaacstalley/documents/github/libopencm3/lib/libopencm3_stm32f4.a(usb.o)
 .text.usbd_register_extra_string
                0x0000000000000000       0x14 /mnt/c/users/isaacstalley/documents/github/libopencm3/lib/libopencm3_stm32f4.a(usb.o)
 .text.usbd_disconnect
                0x0000000000000000        0xc /mnt/c/users/isaacstalley/documents/github/libopencm3/lib/libopencm3_stm32f4.a(usb.o)
 .debug_macro   0x0000000000000000      0xa6c /mnt/c/users/isaacstalley/documents/github/libopencm3/lib/libopencm3_stm32f4.a(usb.o)
 .debug_macro   0x0000000000000000      0x34e /mnt/c/users/isaacstalley/documents/github/libopencm3/lib/libopencm3_stm32f4.a(usb.o)
 .debug_macro   0x0000000000000000       0x1c /mnt/c/users/isaacstalley/documents/github/libopencm3/lib/libopencm3_stm32f4.a(usb.o)
 .debug_macro   0x0000000000000000       0x22 /mnt/c/users/isaacstalley/documents/github/libopencm3/lib/libopencm3_stm32f4.a(usb.o)
 .debug_macro   0x0000000000000000       0xe8 /mnt/c/users/isaacstalley/documents/github/libopencm3/lib/libopencm3_stm32f4.a(usb.o)
 .group         0x0000000000000000        0xc /mnt/c/users/isaacstalley/documents/github/libopencm3/lib/libopencm3_stm32f4.a(usb_standard.o)
 .group         0x0000000000000000        0xc /mnt/c/users/isaacstalley/documents/github/libopencm3/lib/libopencm3_stm32f4.a(usb_standard.o)
 .group         0x0000000000000000        0xc /mnt/c/users/isaacstalley/documents/github/libopencm3/lib/libopencm3_stm32f4.a(usb_standard.o)
 .group         0x0000000000000000        0xc /mnt/c/users/isaacstalley/documents/github/libopencm3/lib/libopencm3_stm32f4.a(usb_standard.o)
 .group         0x0000000000000000        0xc /mnt/c/users/isaacstalley/documents/github/libopencm3/lib/libopencm3_stm32f4.a(usb_standard.o)
 .group         0x0000000000000000        0xc /mnt/c/users/isaacstalley/documents/github/libopencm3/lib/libopencm3_stm32f4.a(usb_standard.o)
 .group         0x0000000000000000        0xc /mnt/c/users/isaacstalley/documents/github/libopencm3/lib/libopencm3_stm32f4.a(usb_standard.o)
 .group         0x0000000000000000        0xc /mnt/c/users/isaacstalley/documents/github/libopencm3/lib/libopencm3_stm32f4.a(usb_standard.o)
 .group         0x0000000000000000        0xc /mnt/c/users/isaacstalley/documents/github/libopencm3/lib/libopencm3_stm32f4.a(usb_standard.o)
 .group         0x0000000000000000        0xc /mnt/c/users/isaacstalley/documents/github/libopencm3/lib/libopencm3_stm32f4.a(usb_standard.o)
 .group         0x0000000000000000        0xc /mnt/c/users/isaacstalley/documents/github/libopencm3/lib/libopencm3_stm32f4.a(usb_standard.o)
 .group         0x0000000000000000        0xc /mnt/c/users/isaacstalley/documents/github/libopencm3/lib/libopencm3_stm32f4.a(usb_standard.o)
 .group         0x0000000000000000        0xc /mnt/c/users/isaacstalley/documents/github/libopencm3/lib/libopencm3_stm32f4.a(usb_standard.o)
 .group         0x0000000000000000        0xc /mnt/c/users/isaacstalley/documents/github/libopencm3/lib/libopencm3_stm32f4.a(usb_standard.o)
 .group         0x0000000000000000        0xc /mnt/c/users/isaacstalley/documents/github/libopencm3/lib/libopencm3_stm32f4.a(usb_standard.o)
 .group         0x0000000000000000        0xc /mnt/c/users/isaacstalley/documents/github/libopencm3/lib/libopencm3_stm32f4.a(usb_standard.o)
 .group         0x0000000000000000        0xc /mnt/c/users/isaacstalley/documents/github/libopencm3/lib/libopencm3_stm32f4.a(usb_standard.o)
 .group         0x0000000000000000        0xc /mnt/c/users/isaacstalley/documents/github/libopencm3/lib/libopencm3_stm32f4.a(usb_standard.o)
 .group         0x0000000000000000        0xc /mnt/c/users/isaacstalley/documents/github/libopencm3/lib/libopencm3_stm32f4.a(usb_standard.o)
 .group         0x0000000000000000        0xc /mnt/c/users/isaacstalley/documents/github/libopencm3/lib/libopencm3_stm32f4.a(usb_standard.o)
 .group         0x0000000000000000        0xc /mnt/c/users/isaacstalley/documents/github/libopencm3/lib/libopencm3_stm32f4.a(usb_standard.o)
 .group         0x0000000000000000        0xc /mnt/c/users/isaacstalley/documents/github/libopencm3/lib/libopencm3_stm32f4.a(usb_standard.o)
 .group         0x0000000000000000        0xc /mnt/c/users/isaacstalley/documents/github/libopencm3/lib/libopencm3_stm32f4.a(usb_standard.o)
 .group         0x0000000000000000        0xc /mnt/c/users/isaacstalley/documents/github/libopencm3/lib/libopencm3_stm32f4.a(usb_standard.o)
 .group         0x0000000000000000        0xc /mnt/c/users/isaacstalley/documents/github/libopencm3/lib/libopencm3_stm32f4.a(usb_standard.o)
 .text          0x0000000000000000        0x0 /mnt/c/users/isaacstalley/documents/github/libopencm3/lib/libopencm3_stm32f4.a(usb_standard.o)
 .data          0x0000000000000000        0x0 /mnt/c/users/isaacstalley/documents/github/libopencm3/lib/libopencm3_stm32f4.a(usb_standard.o)
 .bss           0x0000000000000000        0x0 /mnt/c/users/isaacstalley/documents/github/libopencm3/lib/libopencm3_stm32f4.a(usb_standard.o)
 .text.usbd_register_set_altsetting_callback
                0x0000000000000000        0x6 /mnt/c/users/isaacstalley/documents/github/libopencm3/lib/libopencm3_stm32f4.a(usb_standard.o)
 .debug_macro   0x0000000000000000      0xa6c /mnt/c/users/isaacstalley/documents/github/libopencm3/lib/libopencm3_stm32f4.a(usb_standard.o)
 .debug_macro   0x0000000000000000       0x22 /mnt/c/users/isaacstalley/documents/github/libopencm3/lib/libopencm3_stm32f4.a(usb_standard.o)
 .debug_macro   0x0000000000000000       0x52 /mnt/c/users/isaacstalley/documents/github/libopencm3/lib/libopencm3_stm32f4.a(usb_standard.o)
 .debug_macro   0x0000000000000000       0x18 /mnt/c/users/isaacstalley/documents/github/libopencm3/lib/libopencm3_stm32f4.a(usb_standard.o)
 .debug_macro   0x0000000000000000       0x5c /mnt/c/users/isaacstalley/documents/github/libopencm3/lib/libopencm3_stm32f4.a(usb_standard.o)
 .debug_macro   0x0000000000000000       0x35 /mnt/c/users/isaacstalley/documents/github/libopencm3/lib/libopencm3_stm32f4.a(usb_standard.o)
 .debug_macro   0x0000000000000000       0x34 /mnt/c/users/isaacstalley/documents/github/libopencm3/lib/libopencm3_stm32f4.a(usb_standard.o)
 .debug_macro   0x0000000000000000      0x16d /mnt/c/users/isaacstalley/documents/github/libopencm3/lib/libopencm3_stm32f4.a(usb_standard.o)
 .debug_macro   0x0000000000000000       0x16 /mnt/c/users/isaacstalley/documents/github/libopencm3/lib/libopencm3_stm32f4.a(usb_standard.o)
 .debug_macro   0x0000000000000000       0x43 /mnt/c/users/isaacstalley/documents/github/libopencm3/lib/libopencm3_stm32f4.a(usb_standard.o)
 .debug_macro   0x0000000000000000       0x57 /mnt/c/users/isaacstalley/documents/github/libopencm3/lib/libopencm3_stm32f4.a(usb_standard.o)
 .debug_macro   0x0000000000000000       0x34 /mnt/c/users/isaacstalley/documents/github/libopencm3/lib/libopencm3_stm32f4.a(usb_standard.o)
 .debug_macro   0x0000000000000000       0x10 /mnt/c/users/isaacstalley/documents/github/libopencm3/lib/libopencm3_stm32f4.a(usb_standard.o)
 .debug_macro   0x0000000000000000       0x52 /mnt/c/users/isaacstalley/documents/github/libopencm3/lib/libopencm3_stm32f4.a(usb_standard.o)
 .debug_macro   0x0000000000000000      0x182 /mnt/c/users/isaacstalley/documents/github/libopencm3/lib/libopencm3_stm32f4.a(usb_standard.o)
 .debug_macro   0x0000000000000000      0x356 /mnt/c/users/isaacstalley/documents/github/libopencm3/lib/libopencm3_stm32f4.a(usb_standard.o)
 .debug_macro   0x0000000000000000       0x10 /mnt/c/users/isaacstalley/documents/github/libopencm3/lib/libopencm3_stm32f4.a(usb_standard.o)
 .debug_macro   0x0000000000000000       0x35 /mnt/c/users/isaacstalley/documents/github/libopencm3/lib/libopencm3_stm32f4.a(usb_standard.o)
 .debug_macro   0x0000000000000000      0x34e /mnt/c/users/isaacstalley/documents/github/libopencm3/lib/libopencm3_stm32f4.a(usb_standard.o)
 .debug_macro   0x0000000000000000       0x1c /mnt/c/users/isaacstalley/documents/github/libopencm3/lib/libopencm3_stm32f4.a(usb_standard.o)
 .debug_macro   0x0000000000000000       0x22 /mnt/c/users/isaacstalley/documents/github/libopencm3/lib/libopencm3_stm32f4.a(usb_standard.o)
 .debug_macro   0x0000000000000000       0xe8 /mnt/c/users/isaacstalley/documents/github/libopencm3/lib/libopencm3_stm32f4.a(usb_standard.o)
 .debug_macro   0x0000000000000000      0x19c /mnt/c/users/isaacstalley/documents/github/libopencm3/lib/libopencm3_stm32f4.a(usb_standard.o)
 .debug_macro   0x0000000000000000       0x10 /mnt/c/users/isaacstalley/documents/github/libopencm3/lib/libopencm3_stm32f4.a(usb_standard.o)
 .debug_macro   0x0000000000000000       0x1c /mnt/c/users/isaacstalley/documents/github/libopencm3/lib/libopencm3_stm32f4.a(usb_standard.o)
 .group         0x0000000000000000        0xc /mnt/c/users/isaacstalley/documents/github/libopencm3/lib/libopencm3_stm32f4.a(usb_control.o)
 .group         0x0000000000000000        0xc /mnt/c/users/isaacstalley/documents/github/libopencm3/lib/libopencm3_stm32f4.a(usb_control.o)
 .group         0x0000000000000000        0xc /mnt/c/users/isaacstalley/documents/github/libopencm3/lib/libopencm3_stm32f4.a(usb_control.o)
 .group         0x0000000000000000        0xc /mnt/c/users/isaacstalley/documents/github/libopencm3/lib/libopencm3_stm32f4.a(usb_control.o)
 .group         0x0000000000000000        0xc /mnt/c/users/isaacstalley/documents/github/libopencm3/lib/libopencm3_stm32f4.a(usb_control.o)
 .group         0x0000000000000000        0xc /mnt/c/users/isaacstalley/documents/github/libopencm3/lib/libopencm3_stm32f4.a(usb_control.o)
 .group         0x0000000000000000        0xc /mnt/c/users/isaacstalley/documents/github/libopencm3/lib/libopencm3_stm32f4.a(usb_control.o)
 .group         0x0000000000000000        0xc /mnt/c/users/isaacstalley/documents/github/libopencm3/lib/libopencm3_stm32f4.a(usb_control.o)
 .group         0x0000000000000000        0xc /mnt/c/users/isaacstalley/documents/github/libopencm3/lib/libopencm3_stm32f4.a(usb_control.o)
 .group         0x0000000000000000        0xc /mnt/c/users/isaacstalley/documents/github/libopencm3/lib/libopencm3_stm32f4.a(usb_control.o)
 .group         0x0000000000000000        0xc /mnt/c/users/isaacstalley/documents/github/libopencm3/lib/libopencm3_stm32f4.a(usb_control.o)
 .group         0x0000000000000000        0xc /mnt/c/users/isaacstalley/documents/github/libopencm3/lib/libopencm3_stm32f4.a(usb_control.o)
 .group         0x0000000000000000        0xc /mnt/c/users/isaacstalley/documents/github/libopencm3/lib/libopencm3_stm32f4.a(usb_control.o)
 .group         0x0000000000000000        0xc /mnt/c/users/isaacstalley/documents/github/libopencm3/lib/libopencm3_stm32f4.a(usb_control.o)
 .group         0x0000000000000000        0xc /mnt/c/users/isaacstalley/documents/github/libopencm3/lib/libopencm3_stm32f4.a(usb_control.o)
 .group         0x0000000000000000        0xc /mnt/c/users/isaacstalley/documents/github/libopencm3/lib/libopencm3_stm32f4.a(usb_control.o)
 .group         0x0000000000000000        0xc /mnt/c/users/isaacstalley/documents/github/libopencm3/lib/libopencm3_stm32f4.a(usb_control.o)
 .group         0x0000000000000000        0xc /mnt/c/users/isaacstalley/documents/github/libopencm3/lib/libopencm3_stm32f4.a(usb_control.o)
 .group         0x0000000000000000        0xc /mnt/c/users/isaacstalley/documents/github/libopencm3/lib/libopencm3_stm32f4.a(usb_control.o)
 .group         0x0000000000000000        0xc /mnt/c/users/isaacstalley/documents/github/libopencm3/lib/libopencm3_stm32f4.a(usb_control.o)
 .group         0x0000000000000000        0xc /mnt/c/users/isaacstalley/documents/github/libopencm3/lib/libopencm3_stm32f4.a(usb_control.o)
 .group         0x0000000000000000        0xc /mnt/c/users/isaacstalley/documents/github/libopencm3/lib/libopencm3_stm32f4.a(usb_control.o)
 .group         0x0000000000000000        0xc /mnt/c/users/isaacstalley/documents/github/libopencm3/lib/libopencm3_stm32f4.a(usb_control.o)
 .group         0x0000000000000000        0xc /mnt/c/users/isaacstalley/documents/github/libopencm3/lib/libopencm3_stm32f4.a(usb_control.o)
 .group         0x0000000000000000        0xc /mnt/c/users/isaacstalley/documents/github/libopencm3/lib/libopencm3_stm32f4.a(usb_control.o)
 .group         0x0000000000000000        0xc /mnt/c/users/isaacstalley/documents/github/libopencm3/lib/libopencm3_stm32f4.a(usb_control.o)
 .text          0x0000000000000000        0x0 /mnt/c/users/isaacstalley/documents/github/libopencm3/lib/libopencm3_stm32f4.a(usb_control.o)
 .data          0x0000000000000000        0x0 /mnt/c/users/isaacstalley/documents/github/libopencm3/lib/libopencm3_stm32f4.a(usb_control.o)
 .bss           0x0000000000000000        0x0 /mnt/c/users/isaacstalley/documents/github/libopencm3/lib/libopencm3_stm32f4.a(usb_control.o)
 .debug_macro   0x0000000000000000      0xa6c /mnt/c/users/isaacstalley/documents/github/libopencm3/lib/libopencm3_stm32f4.a(usb_control.o)
 .debug_macro   0x0000000000000000       0x18 /mnt/c/users/isaacstalley/documents/github/libopencm3/lib/libopencm3_stm32f4.a(usb_control.o)
 .debug_macro   0x0000000000000000       0x22 /mnt/c/users/isaacstalley/documents/github/libopencm3/lib/libopencm3_stm32f4.a(usb_control.o)
 .debug_macro   0x0000000000000000       0x52 /mnt/c/users/isaacstalley/documents/github/libopencm3/lib/libopencm3_stm32f4.a(usb_control.o)
 .debug_macro   0x0000000000000000       0x5c /mnt/c/users/isaacstalley/documents/github/libopencm3/lib/libopencm3_stm32f4.a(usb_control.o)
 .debug_macro   0x0000000000000000       0x35 /mnt/c/users/isaacstalley/documents/github/libopencm3/lib/libopencm3_stm32f4.a(usb_control.o)
 .debug_macro   0x0000000000000000       0x34 /mnt/c/users/isaacstalley/documents/github/libopencm3/lib/libopencm3_stm32f4.a(usb_control.o)
 .debug_macro   0x0000000000000000       0x16 /mnt/c/users/isaacstalley/documents/github/libopencm3/lib/libopencm3_stm32f4.a(usb_control.o)
 .debug_macro   0x0000000000000000       0x43 /mnt/c/users/isaacstalley/documents/github/libopencm3/lib/libopencm3_stm32f4.a(usb_control.o)
 .debug_macro   0x0000000000000000       0x57 /mnt/c/users/isaacstalley/documents/github/libopencm3/lib/libopencm3_stm32f4.a(usb_control.o)
 .debug_macro   0x0000000000000000       0x34 /mnt/c/users/isaacstalley/documents/github/libopencm3/lib/libopencm3_stm32f4.a(usb_control.o)
 .debug_macro   0x0000000000000000       0x10 /mnt/c/users/isaacstalley/documents/github/libopencm3/lib/libopencm3_stm32f4.a(usb_control.o)
 .debug_macro   0x0000000000000000       0x52 /mnt/c/users/isaacstalley/documents/github/libopencm3/lib/libopencm3_stm32f4.a(usb_control.o)
 .debug_macro   0x0000000000000000      0x182 /mnt/c/users/isaacstalley/documents/github/libopencm3/lib/libopencm3_stm32f4.a(usb_control.o)
 .debug_macro   0x0000000000000000      0x356 /mnt/c/users/isaacstalley/documents/github/libopencm3/lib/libopencm3_stm32f4.a(usb_control.o)
 .debug_macro   0x0000000000000000      0x34e /mnt/c/users/isaacstalley/documents/github/libopencm3/lib/libopencm3_stm32f4.a(usb_control.o)
 .debug_macro   0x0000000000000000       0x1c /mnt/c/users/isaacstalley/documents/github/libopencm3/lib/libopencm3_stm32f4.a(usb_control.o)
 .debug_macro   0x0000000000000000       0x22 /mnt/c/users/isaacstalley/documents/github/libopencm3/lib/libopencm3_stm32f4.a(usb_control.o)
 .debug_macro   0x0000000000000000       0xe8 /mnt/c/users/isaacstalley/documents/github/libopencm3/lib/libopencm3_stm32f4.a(usb_control.o)
 .debug_macro   0x0000000000000000      0x19c /mnt/c/users/isaacstalley/documents/github/libopencm3/lib/libopencm3_stm32f4.a(usb_control.o)
 .debug_macro   0x0000000000000000       0x10 /mnt/c/users/isaacstalley/documents/github/libopencm3/lib/libopencm3_stm32f4.a(usb_control.o)
 .debug_macro   0x0000000000000000       0x1c /mnt/c/users/isaacstalley/documents/github/libopencm3/lib/libopencm3_stm32f4.a(usb_control.o)
 .group         0x0000000000000000        0xc /mnt/c/users/isaacstalley/documents/github/libopencm3/lib/libopencm3_stm32f4.a(usb_f207.o)
 .group         0x0000000000000000        0xc /mnt/c/users/isaacstalley/documents/github/libopencm3/lib/libopencm3_stm32f4.a(usb_f207.o)
 .group         0x0000000000000000        0xc /mnt/c/users/isaacstalley/documents/github/libopencm3/lib/libopencm3_stm32f4.a(usb_f207.o)
 .group         0x0000000000000000        0xc /mnt/c/users/isaacstalley/documents/github/libopencm3/lib/libopencm3_stm32f4.a(usb_f207.o)
 .group         0x0000000000000000        0xc /mnt/c/users/isaacstalley/documents/github/libopencm3/lib/libopencm3_stm32f4.a(usb_f207.o)
 .group         0x0000000000000000        0xc /mnt/c/users/isaacstalley/documents/github/libopencm3/lib/libopencm3_stm32f4.a(usb_f207.o)
 .group         0x0000000000000000        0xc /mnt/c/users/isaacstalley/documents/github/libopencm3/lib/libopencm3_stm32f4.a(usb_f207.o)
 .group         0x0000000000000000        0xc /mnt/c/users/isaacstalley/documents/github/libopencm3/lib/libopencm3_stm32f4.a(usb_f207.o)
 .group         0x0000000000000000        0xc /mnt/c/users/isaacstalley/documents/github/libopencm3/lib/libopencm3_stm32f4.a(usb_f207.o)
 .group         0x0000000000000000        0xc /mnt/c/users/isaacstalley/documents/github/libopencm3/lib/libopencm3_stm32f4.a(usb_f207.o)
 .group         0x0000000000000000        0xc /mnt/c/users/isaacstalley/documents/github/libopencm3/lib/libopencm3_stm32f4.a(usb_f207.o)
 .group         0x0000000000000000        0xc /mnt/c/users/isaacstalley/documents/github/libopencm3/lib/libopencm3_stm32f4.a(usb_f207.o)
 .group         0x0000000000000000        0xc /mnt/c/users/isaacstalley/documents/github/libopencm3/lib/libopencm3_stm32f4.a(usb_f207.o)
 .group         0x0000000000000000        0xc /mnt/c/users/isaacstalley/documents/github/libopencm3/lib/libopencm3_stm32f4.a(usb_f207.o)
 .group         0x0000000000000000        0xc /mnt/c/users/isaacstalley/documents/github/libopencm3/lib/libopencm3_stm32f4.a(usb_f207.o)
 .group         0x0000000000000000        0xc /mnt/c/users/isaacstalley/documents/github/libopencm3/lib/libopencm3_stm32f4.a(usb_f207.o)
 .group         0x0000000000000000        0xc /mnt/c/users/isaacstalley/documents/github/libopencm3/lib/libopencm3_stm32f4.a(usb_f207.o)
 .group         0x0000000000000000        0xc /mnt/c/users/isaacstalley/documents/github/libopencm3/lib/libopencm3_stm32f4.a(usb_f207.o)
 .group         0x0000000000000000        0xc /mnt/c/users/isaacstalley/documents/github/libopencm3/lib/libopencm3_stm32f4.a(usb_f207.o)
 .group         0x0000000000000000        0xc /mnt/c/users/isaacstalley/documents/github/libopencm3/lib/libopencm3_stm32f4.a(usb_f207.o)
 .group         0x0000000000000000        0xc /mnt/c/users/isaacstalley/documents/github/libopencm3/lib/libopencm3_stm32f4.a(usb_f207.o)
 .group         0x0000000000000000        0xc /mnt/c/users/isaacstalley/documents/github/libopencm3/lib/libopencm3_stm32f4.a(usb_f207.o)
 .group         0x0000000000000000        0xc /mnt/c/users/isaacstalley/documents/github/libopencm3/lib/libopencm3_stm32f4.a(usb_f207.o)
 .group         0x0000000000000000        0xc /mnt/c/users/isaacstalley/documents/github/libopencm3/lib/libopencm3_stm32f4.a(usb_f207.o)
 .group         0x0000000000000000        0xc /mnt/c/users/isaacstalley/documents/github/libopencm3/lib/libopencm3_stm32f4.a(usb_f207.o)
 .group         0x0000000000000000        0xc /mnt/c/users/isaacstalley/documents/github/libopencm3/lib/libopencm3_stm32f4.a(usb_f207.o)
 .group         0x0000000000000000        0xc /mnt/c/users/isaacstalley/documents/github/libopencm3/lib/libopencm3_stm32f4.a(usb_f207.o)
 .group         0x0000000000000000        0xc /mnt/c/users/isaacstalley/documents/github/libopencm3/lib/libopencm3_stm32f4.a(usb_f207.o)
 .group         0x0000000000000000        0xc /mnt/c/users/isaacstalley/documents/github/libopencm3/lib/libopencm3_stm32f4.a(usb_f207.o)
 .group         0x0000000000000000        0xc /mnt/c/users/isaacstalley/documents/github/libopencm3/lib/libopencm3_stm32f4.a(usb_f207.o)
 .group         0x0000000000000000        0xc /mnt/c/users/isaacstalley/documents/github/libopencm3/lib/libopencm3_stm32f4.a(usb_f207.o)
 .group         0x0000000000000000        0xc /mnt/c/users/isaacstalley/documents/github/libopencm3/lib/libopencm3_stm32f4.a(usb_f207.o)
 .group         0x0000000000000000        0xc /mnt/c/users/isaacstalley/documents/github/libopencm3/lib/libopencm3_stm32f4.a(usb_f207.o)
 .text          0x0000000000000000        0x0 /mnt/c/users/isaacstalley/documents/github/libopencm3/lib/libopencm3_stm32f4.a(usb_f207.o)
 .data          0x0000000000000000        0x0 /mnt/c/users/isaacstalley/documents/github/libopencm3/lib/libopencm3_stm32f4.a(usb_f207.o)
 .bss           0x0000000000000000        0x0 /mnt/c/users/isaacstalley/documents/github/libopencm3/lib/libopencm3_stm32f4.a(usb_f207.o)
 .debug_macro   0x0000000000000000      0xa6c /mnt/c/users/isaacstalley/documents/github/libopencm3/lib/libopencm3_stm32f4.a(usb_f207.o)
 .debug_macro   0x0000000000000000       0x22 /mnt/c/users/isaacstalley/documents/github/libopencm3/lib/libopencm3_stm32f4.a(usb_f207.o)
 .debug_macro   0x0000000000000000       0x52 /mnt/c/users/isaacstalley/documents/github/libopencm3/lib/libopencm3_stm32f4.a(usb_f207.o)
 .debug_macro   0x0000000000000000       0x18 /mnt/c/users/isaacstalley/documents/github/libopencm3/lib/libopencm3_stm32f4.a(usb_f207.o)
 .debug_macro   0x0000000000000000       0x5c /mnt/c/users/isaacstalley/documents/github/libopencm3/lib/libopencm3_stm32f4.a(usb_f207.o)
 .debug_macro   0x0000000000000000       0x35 /mnt/c/users/isaacstalley/documents/github/libopencm3/lib/libopencm3_stm32f4.a(usb_f207.o)
 .debug_macro   0x0000000000000000       0x34 /mnt/c/users/isaacstalley/documents/github/libopencm3/lib/libopencm3_stm32f4.a(usb_f207.o)
 .debug_macro   0x0000000000000000      0x16d /mnt/c/users/isaacstalley/documents/github/libopencm3/lib/libopencm3_stm32f4.a(usb_f207.o)
 .debug_macro   0x0000000000000000       0x16 /mnt/c/users/isaacstalley/documents/github/libopencm3/lib/libopencm3_stm32f4.a(usb_f207.o)
 .debug_macro   0x0000000000000000       0x43 /mnt/c/users/isaacstalley/documents/github/libopencm3/lib/libopencm3_stm32f4.a(usb_f207.o)
 .debug_macro   0x0000000000000000       0x57 /mnt/c/users/isaacstalley/documents/github/libopencm3/lib/libopencm3_stm32f4.a(usb_f207.o)
 .debug_macro   0x0000000000000000       0x34 /mnt/c/users/isaacstalley/documents/github/libopencm3/lib/libopencm3_stm32f4.a(usb_f207.o)
 .debug_macro   0x0000000000000000       0x10 /mnt/c/users/isaacstalley/documents/github/libopencm3/lib/libopencm3_stm32f4.a(usb_f207.o)
 .debug_macro   0x0000000000000000       0x52 /mnt/c/users/isaacstalley/documents/github/libopencm3/lib/libopencm3_stm32f4.a(usb_f207.o)
 .debug_macro   0x0000000000000000      0x182 /mnt/c/users/isaacstalley/documents/github/libopencm3/lib/libopencm3_stm32f4.a(usb_f207.o)
 .debug_macro   0x0000000000000000      0x356 /mnt/c/users/isaacstalley/documents/github/libopencm3/lib/libopencm3_stm32f4.a(usb_f207.o)
 .debug_macro   0x0000000000000000       0x10 /mnt/c/users/isaacstalley/documents/github/libopencm3/lib/libopencm3_stm32f4.a(usb_f207.o)
 .debug_macro   0x0000000000000000       0x35 /mnt/c/users/isaacstalley/documents/github/libopencm3/lib/libopencm3_stm32f4.a(usb_f207.o)
 .debug_macro   0x0000000000000000       0x1c /mnt/c/users/isaacstalley/documents/github/libopencm3/lib/libopencm3_stm32f4.a(usb_f207.o)
 .debug_macro   0x0000000000000000      0x34e /mnt/c/users/isaacstalley/documents/github/libopencm3/lib/libopencm3_stm32f4.a(usb_f207.o)
 .debug_macro   0x0000000000000000       0x22 /mnt/c/users/isaacstalley/documents/github/libopencm3/lib/libopencm3_stm32f4.a(usb_f207.o)
 .debug_macro   0x0000000000000000       0xe8 /mnt/c/users/isaacstalley/documents/github/libopencm3/lib/libopencm3_stm32f4.a(usb_f207.o)
 .debug_macro   0x0000000000000000       0x76 /mnt/c/users/isaacstalley/documents/github/libopencm3/lib/libopencm3_stm32f4.a(usb_f207.o)
 .debug_macro   0x0000000000000000      0x280 /mnt/c/users/isaacstalley/documents/github/libopencm3/lib/libopencm3_stm32f4.a(usb_f207.o)
 .debug_macro   0x0000000000000000       0x8e /mnt/c/users/isaacstalley/documents/github/libopencm3/lib/libopencm3_stm32f4.a(usb_f207.o)
 .debug_macro   0x0000000000000000       0x46 /mnt/c/users/isaacstalley/documents/github/libopencm3/lib/libopencm3_stm32f4.a(usb_f207.o)
 .debug_macro   0x0000000000000000      0xcea /mnt/c/users/isaacstalley/documents/github/libopencm3/lib/libopencm3_stm32f4.a(usb_f207.o)
 .debug_macro   0x0000000000000000       0x10 /mnt/c/users/isaacstalley/documents/github/libopencm3/lib/libopencm3_stm32f4.a(usb_f207.o)
 .debug_macro   0x0000000000000000       0x1c /mnt/c/users/isaacstalley/documents/github/libopencm3/lib/libopencm3_stm32f4.a(usb_f207.o)
 .group         0x0000000000000000        0xc /mnt/c/users/isaacstalley/documents/github/libopencm3/lib/libopencm3_stm32f4.a(vector.o)
 .group         0x0000000000000000        0xc /mnt/c/users/isaacstalley/documents/github/libopencm3/lib/libopencm3_stm32f4.a(vector.o)
 .group         0x0000000000000000        0xc /mnt/c/users/isaacstalley/documents/github/libopencm3/lib/libopencm3_stm32f4.a(vector.o)
 .group         0x0000000000000000        0xc /mnt/c/users/isaacstalley/documents/github/libopencm3/lib/libopencm3_stm32f4.a(vector.o)
 .group         0x0000000000000000        0xc /mnt/c/users/isaacstalley/documents/github/libopencm3/lib/libopencm3_stm32f4.a(vector.o)
 .group         0x0000000000000000        0xc /mnt/c/users/isaacstalley/documents/github/libopencm3/lib/libopencm3_stm32f4.a(vector.o)
 .group         0x0000000000000000        0xc /mnt/c/users/isaacstalley/documents/github/libopencm3/lib/libopencm3_stm32f4.a(vector.o)
 .group         0x0000000000000000        0xc /mnt/c/users/isaacstalley/documents/github/libopencm3/lib/libopencm3_stm32f4.a(vector.o)
 .group         0x0000000000000000        0xc /mnt/c/users/isaacstalley/documents/github/libopencm3/lib/libopencm3_stm32f4.a(vector.o)
 .text          0x0000000000000000        0x0 /mnt/c/users/isaacstalley/documents/github/libopencm3/lib/libopencm3_stm32f4.a(vector.o)
 .data          0x0000000000000000        0x0 /mnt/c/users/isaacstalley/documents/github/libopencm3/lib/libopencm3_stm32f4.a(vector.o)
 .bss           0x0000000000000000        0x0 /mnt/c/users/isaacstalley/documents/github/libopencm3/lib/libopencm3_stm32f4.a(vector.o)
 .debug_macro   0x0000000000000000      0xa6c /mnt/c/users/isaacstalley/documents/github/libopencm3/lib/libopencm3_stm32f4.a(vector.o)
 .debug_macro   0x0000000000000000       0x76 /mnt/c/users/isaacstalley/documents/github/libopencm3/lib/libopencm3_stm32f4.a(vector.o)
 .debug_macro   0x0000000000000000       0x1c /mnt/c/users/isaacstalley/documents/github/libopencm3/lib/libopencm3_stm32f4.a(vector.o)
 .debug_macro   0x0000000000000000      0x34e /mnt/c/users/isaacstalley/documents/github/libopencm3/lib/libopencm3_stm32f4.a(vector.o)
 .debug_macro   0x0000000000000000       0x22 /mnt/c/users/isaacstalley/documents/github/libopencm3/lib/libopencm3_stm32f4.a(vector.o)
 .debug_macro   0x0000000000000000       0xe8 /mnt/c/users/isaacstalley/documents/github/libopencm3/lib/libopencm3_stm32f4.a(vector.o)
 .group         0x0000000000000000        0xc /mnt/c/users/isaacstalley/documents/github/libopencm3/lib/libopencm3_stm32f4.a(systick.o)
 .group         0x0000000000000000        0xc /mnt/c/users/isaacstalley/documents/github/libopencm3/lib/libopencm3_stm32f4.a(systick.o)
 .group         0x0000000000000000        0xc /mnt/c/users/isaacstalley/documents/github/libopencm3/lib/libopencm3_stm32f4.a(systick.o)
 .group         0x0000000000000000        0xc /mnt/c/users/isaacstalley/documents/github/libopencm3/lib/libopencm3_stm32f4.a(systick.o)
 .group         0x0000000000000000        0xc /mnt/c/users/isaacstalley/documents/github/libopencm3/lib/libopencm3_stm32f4.a(systick.o)
 .group         0x0000000000000000        0xc /mnt/c/users/isaacstalley/documents/github/libopencm3/lib/libopencm3_stm32f4.a(systick.o)
 .group         0x0000000000000000        0xc /mnt/c/users/isaacstalley/documents/github/libopencm3/lib/libopencm3_stm32f4.a(systick.o)
 .text          0x0000000000000000        0x0 /mnt/c/users/isaacstalley/documents/github/libopencm3/lib/libopencm3_stm32f4.a(systick.o)
 .data          0x0000000000000000        0x0 /mnt/c/users/isaacstalley/documents/github/libopencm3/lib/libopencm3_stm32f4.a(systick.o)
 .bss           0x0000000000000000        0x0 /mnt/c/users/isaacstalley/documents/github/libopencm3/lib/libopencm3_stm32f4.a(systick.o)
 .text.systick_get_reload
                0x0000000000000000        0xc /mnt/c/users/isaacstalley/documents/github/libopencm3/lib/libopencm3_stm32f4.a(systick.o)
 .text.systick_get_value
                0x0000000000000000        0xc /mnt/c/users/isaacstalley/documents/github/libopencm3/lib/libopencm3_stm32f4.a(systick.o)
 .text.systick_set_frequency
                0x0000000000000000       0x38 /mnt/c/users/isaacstalley/documents/github/libopencm3/lib/libopencm3_stm32f4.a(systick.o)
 .text.systick_interrupt_disable
                0x0000000000000000        0xe /mnt/c/users/isaacstalley/documents/github/libopencm3/lib/libopencm3_stm32f4.a(systick.o)
 .text.systick_counter_disable
                0x0000000000000000        0xe /mnt/c/users/isaacstalley/documents/github/libopencm3/lib/libopencm3_stm32f4.a(systick.o)
 .text.systick_get_countflag
                0x0000000000000000        0xc /mnt/c/users/isaacstalley/documents/github/libopencm3/lib/libopencm3_stm32f4.a(systick.o)
 .text.systick_clear
                0x0000000000000000        0xa /mnt/c/users/isaacstalley/documents/github/libopencm3/lib/libopencm3_stm32f4.a(systick.o)
 .text.systick_get_calib
                0x0000000000000000        0xc /mnt/c/users/isaacstalley/documents/github/libopencm3/lib/libopencm3_stm32f4.a(systick.o)
 .debug_macro   0x0000000000000000      0xa6c /mnt/c/users/isaacstalley/documents/github/libopencm3/lib/libopencm3_stm32f4.a(systick.o)
 .debug_macro   0x0000000000000000       0x76 /mnt/c/users/isaacstalley/documents/github/libopencm3/lib/libopencm3_stm32f4.a(systick.o)
 .debug_macro   0x0000000000000000       0x1c /mnt/c/users/isaacstalley/documents/github/libopencm3/lib/libopencm3_stm32f4.a(systick.o)
 .debug_macro   0x0000000000000000      0x34e /mnt/c/users/isaacstalley/documents/github/libopencm3/lib/libopencm3_stm32f4.a(systick.o)
 .debug_macro   0x0000000000000000       0x22 /mnt/c/users/isaacstalley/documents/github/libopencm3/lib/libopencm3_stm32f4.a(systick.o)
 .debug_macro   0x0000000000000000       0xe8 /mnt/c/users/isaacstalley/documents/github/libopencm3/lib/libopencm3_stm32f4.a(systick.o)
 .group         0x0000000000000000        0xc /mnt/c/users/isaacstalley/documents/github/libopencm3/lib/libopencm3_stm32f4.a(flash_common_all.o)
 .group         0x0000000000000000        0xc /mnt/c/users/isaacstalley/documents/github/libopencm3/lib/libopencm3_stm32f4.a(flash_common_all.o)
 .group         0x0000000000000000        0xc /mnt/c/users/isaacstalley/documents/github/libopencm3/lib/libopencm3_stm32f4.a(flash_common_all.o)
 .group         0x0000000000000000        0xc /mnt/c/users/isaacstalley/documents/github/libopencm3/lib/libopencm3_stm32f4.a(flash_common_all.o)
 .group         0x0000000000000000        0xc /mnt/c/users/isaacstalley/documents/github/libopencm3/lib/libopencm3_stm32f4.a(flash_common_all.o)
 .group         0x0000000000000000        0xc /mnt/c/users/isaacstalley/documents/github/libopencm3/lib/libopencm3_stm32f4.a(flash_common_all.o)
 .group         0x0000000000000000        0xc /mnt/c/users/isaacstalley/documents/github/libopencm3/lib/libopencm3_stm32f4.a(flash_common_all.o)
 .group         0x0000000000000000        0xc /mnt/c/users/isaacstalley/documents/github/libopencm3/lib/libopencm3_stm32f4.a(flash_common_all.o)
 .group         0x0000000000000000        0xc /mnt/c/users/isaacstalley/documents/github/libopencm3/lib/libopencm3_stm32f4.a(flash_common_all.o)
 .group         0x0000000000000000        0xc /mnt/c/users/isaacstalley/documents/github/libopencm3/lib/libopencm3_stm32f4.a(flash_common_all.o)
 .text          0x0000000000000000        0x0 /mnt/c/users/isaacstalley/documents/github/libopencm3/lib/libopencm3_stm32f4.a(flash_common_all.o)
 .data          0x0000000000000000        0x0 /mnt/c/users/isaacstalley/documents/github/libopencm3/lib/libopencm3_stm32f4.a(flash_common_all.o)
 .bss           0x0000000000000000        0x0 /mnt/c/users/isaacstalley/documents/github/libopencm3/lib/libopencm3_stm32f4.a(flash_common_all.o)
 .text.flash_prefetch_enable
                0x0000000000000000       0x14 /mnt/c/users/isaacstalley/documents/github/libopencm3/lib/libopencm3_stm32f4.a(flash_common_all.o)
 .text.flash_prefetch_disable
                0x0000000000000000       0x14 /mnt/c/users/isaacstalley/documents/github/libopencm3/lib/libopencm3_stm32f4.a(flash_common_all.o)
 .text.flash_unlock_option_bytes
                0x0000000000000000       0x1c /mnt/c/users/isaacstalley/documents/github/libopencm3/lib/libopencm3_stm32f4.a(flash_common_all.o)
 .debug_macro   0x0000000000000000      0xa6c /mnt/c/users/isaacstalley/documents/github/libopencm3/lib/libopencm3_stm32f4.a(flash_common_all.o)
 .debug_macro   0x0000000000000000       0x1c /mnt/c/users/isaacstalley/documents/github/libopencm3/lib/libopencm3_stm32f4.a(flash_common_all.o)
 .debug_macro   0x0000000000000000      0x34e /mnt/c/users/isaacstalley/documents/github/libopencm3/lib/libopencm3_stm32f4.a(flash_common_all.o)
 .debug_macro   0x0000000000000000       0x22 /mnt/c/users/isaacstalley/documents/github/libopencm3/lib/libopencm3_stm32f4.a(flash_common_all.o)
 .debug_macro   0x0000000000000000       0xe8 /mnt/c/users/isaacstalley/documents/github/libopencm3/lib/libopencm3_stm32f4.a(flash_common_all.o)
 .debug_macro   0x0000000000000000       0x76 /mnt/c/users/isaacstalley/documents/github/libopencm3/lib/libopencm3_stm32f4.a(flash_common_all.o)
 .debug_macro   0x0000000000000000      0x280 /mnt/c/users/isaacstalley/documents/github/libopencm3/lib/libopencm3_stm32f4.a(flash_common_all.o)
 .debug_macro   0x0000000000000000       0x1c /mnt/c/users/isaacstalley/documents/github/libopencm3/lib/libopencm3_stm32f4.a(flash_common_all.o)
 .debug_macro   0x0000000000000000      0x143 /mnt/c/users/isaacstalley/documents/github/libopencm3/lib/libopencm3_stm32f4.a(flash_common_all.o)
 .debug_macro   0x0000000000000000       0x10 /mnt/c/users/isaacstalley/documents/github/libopencm3/lib/libopencm3_stm32f4.a(flash_common_all.o)
 .group         0x0000000000000000        0xc /mnt/c/users/isaacstalley/documents/github/libopencm3/lib/libopencm3_stm32f4.a(flash_common_idcache.o)
 .group         0x0000000000000000        0xc /mnt/c/users/isaacstalley/documents/github/libopencm3/lib/libopencm3_stm32f4.a(flash_common_idcache.o)
 .group         0x0000000000000000        0xc /mnt/c/users/isaacstalley/documents/github/libopencm3/lib/libopencm3_stm32f4.a(flash_common_idcache.o)
 .group         0x0000000000000000        0xc /mnt/c/users/isaacstalley/documents/github/libopencm3/lib/libopencm3_stm32f4.a(flash_common_idcache.o)
 .group         0x0000000000000000        0xc /mnt/c/users/isaacstalley/documents/github/libopencm3/lib/libopencm3_stm32f4.a(flash_common_idcache.o)
 .group         0x0000000000000000        0xc /mnt/c/users/isaacstalley/documents/github/libopencm3/lib/libopencm3_stm32f4.a(flash_common_idcache.o)
 .group         0x0000000000000000        0xc /mnt/c/users/isaacstalley/documents/github/libopencm3/lib/libopencm3_stm32f4.a(flash_common_idcache.o)
 .group         0x0000000000000000        0xc /mnt/c/users/isaacstalley/documents/github/libopencm3/lib/libopencm3_stm32f4.a(flash_common_idcache.o)
 .group         0x0000000000000000        0xc /mnt/c/users/isaacstalley/documents/github/libopencm3/lib/libopencm3_stm32f4.a(flash_common_idcache.o)
 .group         0x0000000000000000        0xc /mnt/c/users/isaacstalley/documents/github/libopencm3/lib/libopencm3_stm32f4.a(flash_common_idcache.o)
 .text          0x0000000000000000        0x0 /mnt/c/users/isaacstalley/documents/github/libopencm3/lib/libopencm3_stm32f4.a(flash_common_idcache.o)
 .data          0x0000000000000000        0x0 /mnt/c/users/isaacstalley/documents/github/libopencm3/lib/libopencm3_stm32f4.a(flash_common_idcache.o)
 .bss           0x0000000000000000        0x0 /mnt/c/users/isaacstalley/documents/github/libopencm3/lib/libopencm3_stm32f4.a(flash_common_idcache.o)
 .text.flash_dcache_reset
                0x0000000000000000       0x14 /mnt/c/users/isaacstalley/documents/github/libopencm3/lib/libopencm3_stm32f4.a(flash_common_idcache.o)
 .text.flash_icache_reset
                0x0000000000000000       0x14 /mnt/c/users/isaacstalley/documents/github/libopencm3/lib/libopencm3_stm32f4.a(flash_common_idcache.o)
 .debug_macro   0x0000000000000000      0xa6c /mnt/c/users/isaacstalley/documents/github/libopencm3/lib/libopencm3_stm32f4.a(flash_common_idcache.o)
 .debug_macro   0x0000000000000000       0x1c /mnt/c/users/isaacstalley/documents/github/libopencm3/lib/libopencm3_stm32f4.a(flash_common_idcache.o)
 .debug_macro   0x0000000000000000      0x34e /mnt/c/users/isaacstalley/documents/github/libopencm3/lib/libopencm3_stm32f4.a(flash_common_idcache.o)
 .debug_macro   0x0000000000000000       0x22 /mnt/c/users/isaacstalley/documents/github/libopencm3/lib/libopencm3_stm32f4.a(flash_common_idcache.o)
 .debug_macro   0x0000000000000000       0xe8 /mnt/c/users/isaacstalley/documents/github/libopencm3/lib/libopencm3_stm32f4.a(flash_common_idcache.o)
 .debug_macro   0x0000000000000000       0x76 /mnt/c/users/isaacstalley/documents/github/libopencm3/lib/libopencm3_stm32f4.a(flash_common_idcache.o)
 .debug_macro   0x0000000000000000      0x280 /mnt/c/users/isaacstalley/documents/github/libopencm3/lib/libopencm3_stm32f4.a(flash_common_idcache.o)
 .debug_macro   0x0000000000000000       0x1c /mnt/c/users/isaacstalley/documents/github/libopencm3/lib/libopencm3_stm32f4.a(flash_common_idcache.o)
 .debug_macro   0x0000000000000000      0x143 /mnt/c/users/isaacstalley/documents/github/libopencm3/lib/libopencm3_stm32f4.a(flash_common_idcache.o)
 .debug_macro   0x0000000000000000       0x10 /mnt/c/users/isaacstalley/documents/github/libopencm3/lib/libopencm3_stm32f4.a(flash_common_idcache.o)
 .group         0x0000000000000000        0xc /mnt/c/users/isaacstalley/documents/github/libopencm3/lib/libopencm3_stm32f4.a(pwr.o)
 .group         0x0000000000000000        0xc /mnt/c/users/isaacstalley/documents/github/libopencm3/lib/libopencm3_stm32f4.a(pwr.o)
 .group         0x0000000000000000        0xc /mnt/c/users/isaacstalley/documents/github/libopencm3/lib/libopencm3_stm32f4.a(pwr.o)
 .group         0x0000000000000000        0xc /mnt/c/users/isaacstalley/documents/github/libopencm3/lib/libopencm3_stm32f4.a(pwr.o)
 .group         0x0000000000000000        0xc /mnt/c/users/isaacstalley/documents/github/libopencm3/lib/libopencm3_stm32f4.a(pwr.o)
 .group         0x0000000000000000        0xc /mnt/c/users/isaacstalley/documents/github/libopencm3/lib/libopencm3_stm32f4.a(pwr.o)
 .group         0x0000000000000000        0xc /mnt/c/users/isaacstalley/documents/github/libopencm3/lib/libopencm3_stm32f4.a(pwr.o)
 .group         0x0000000000000000        0xc /mnt/c/users/isaacstalley/documents/github/libopencm3/lib/libopencm3_stm32f4.a(pwr.o)
 .group         0x0000000000000000        0xc /mnt/c/users/isaacstalley/documents/github/libopencm3/lib/libopencm3_stm32f4.a(pwr.o)
 .text          0x0000000000000000        0x0 /mnt/c/users/isaacstalley/documents/github/libopencm3/lib/libopencm3_stm32f4.a(pwr.o)
 .data          0x0000000000000000        0x0 /mnt/c/users/isaacstalley/documents/github/libopencm3/lib/libopencm3_stm32f4.a(pwr.o)
 .bss           0x0000000000000000        0x0 /mnt/c/users/isaacstalley/documents/github/libopencm3/lib/libopencm3_stm32f4.a(pwr.o)
 .debug_macro   0x0000000000000000      0xa6c /mnt/c/users/isaacstalley/documents/github/libopencm3/lib/libopencm3_stm32f4.a(pwr.o)
 .debug_macro   0x0000000000000000       0x1c /mnt/c/users/isaacstalley/documents/github/libopencm3/lib/libopencm3_stm32f4.a(pwr.o)
 .debug_macro   0x0000000000000000      0x34e /mnt/c/users/isaacstalley/documents/github/libopencm3/lib/libopencm3_stm32f4.a(pwr.o)
 .debug_macro   0x0000000000000000       0x22 /mnt/c/users/isaacstalley/documents/github/libopencm3/lib/libopencm3_stm32f4.a(pwr.o)
 .debug_macro   0x0000000000000000       0xe8 /mnt/c/users/isaacstalley/documents/github/libopencm3/lib/libopencm3_stm32f4.a(pwr.o)
 .debug_macro   0x0000000000000000       0x76 /mnt/c/users/isaacstalley/documents/github/libopencm3/lib/libopencm3_stm32f4.a(pwr.o)
 .debug_macro   0x0000000000000000      0x280 /mnt/c/users/isaacstalley/documents/github/libopencm3/lib/libopencm3_stm32f4.a(pwr.o)
 .debug_macro   0x0000000000000000       0x8e /mnt/c/users/isaacstalley/documents/github/libopencm3/lib/libopencm3_stm32f4.a(pwr.o)
 .debug_macro   0x0000000000000000       0x46 /mnt/c/users/isaacstalley/documents/github/libopencm3/lib/libopencm3_stm32f4.a(pwr.o)
 .group         0x0000000000000000        0xc /mnt/c/users/isaacstalley/documents/github/libopencm3/lib/libopencm3_stm32f4.a(usb_dwc_common.o)
 .group         0x0000000000000000        0xc /mnt/c/users/isaacstalley/documents/github/libopencm3/lib/libopencm3_stm32f4.a(usb_dwc_common.o)
 .group         0x0000000000000000        0xc /mnt/c/users/isaacstalley/documents/github/libopencm3/lib/libopencm3_stm32f4.a(usb_dwc_common.o)
 .group         0x0000000000000000        0xc /mnt/c/users/isaacstalley/documents/github/libopencm3/lib/libopencm3_stm32f4.a(usb_dwc_common.o)
 .group         0x0000000000000000        0xc /mnt/c/users/isaacstalley/documents/github/libopencm3/lib/libopencm3_stm32f4.a(usb_dwc_common.o)
 .group         0x0000000000000000        0xc /mnt/c/users/isaacstalley/documents/github/libopencm3/lib/libopencm3_stm32f4.a(usb_dwc_common.o)
 .group         0x0000000000000000        0xc /mnt/c/users/isaacstalley/documents/github/libopencm3/lib/libopencm3_stm32f4.a(usb_dwc_common.o)
 .group         0x0000000000000000        0xc /mnt/c/users/isaacstalley/documents/github/libopencm3/lib/libopencm3_stm32f4.a(usb_dwc_common.o)
 .group         0x0000000000000000        0xc /mnt/c/users/isaacstalley/documents/github/libopencm3/lib/libopencm3_stm32f4.a(usb_dwc_common.o)
 .group         0x0000000000000000        0xc /mnt/c/users/isaacstalley/documents/github/libopencm3/lib/libopencm3_stm32f4.a(usb_dwc_common.o)
 .group         0x0000000000000000        0xc /mnt/c/users/isaacstalley/documents/github/libopencm3/lib/libopencm3_stm32f4.a(usb_dwc_common.o)
 .group         0x0000000000000000        0xc /mnt/c/users/isaacstalley/documents/github/libopencm3/lib/libopencm3_stm32f4.a(usb_dwc_common.o)
 .group         0x0000000000000000        0xc /mnt/c/users/isaacstalley/documents/github/libopencm3/lib/libopencm3_stm32f4.a(usb_dwc_common.o)
 .group         0x0000000000000000        0xc /mnt/c/users/isaacstalley/documents/github/libopencm3/lib/libopencm3_stm32f4.a(usb_dwc_common.o)
 .group         0x0000000000000000        0xc /mnt/c/users/isaacstalley/documents/github/libopencm3/lib/libopencm3_stm32f4.a(usb_dwc_common.o)
 .group         0x0000000000000000        0xc /mnt/c/users/isaacstalley/documents/github/libopencm3/lib/libopencm3_stm32f4.a(usb_dwc_common.o)
 .group         0x0000000000000000        0xc /mnt/c/users/isaacstalley/documents/github/libopencm3/lib/libopencm3_stm32f4.a(usb_dwc_common.o)
 .group         0x0000000000000000        0xc /mnt/c/users/isaacstalley/documents/github/libopencm3/lib/libopencm3_stm32f4.a(usb_dwc_common.o)
 .group         0x0000000000000000        0xc /mnt/c/users/isaacstalley/documents/github/libopencm3/lib/libopencm3_stm32f4.a(usb_dwc_common.o)
 .group         0x0000000000000000        0xc /mnt/c/users/isaacstalley/documents/github/libopencm3/lib/libopencm3_stm32f4.a(usb_dwc_common.o)
 .group         0x0000000000000000        0xc /mnt/c/users/isaacstalley/documents/github/libopencm3/lib/libopencm3_stm32f4.a(usb_dwc_common.o)
 .group         0x0000000000000000        0xc /mnt/c/users/isaacstalley/documents/github/libopencm3/lib/libopencm3_stm32f4.a(usb_dwc_common.o)
 .group         0x0000000000000000        0xc /mnt/c/users/isaacstalley/documents/github/libopencm3/lib/libopencm3_stm32f4.a(usb_dwc_common.o)
 .group         0x0000000000000000        0xc /mnt/c/users/isaacstalley/documents/github/libopencm3/lib/libopencm3_stm32f4.a(usb_dwc_common.o)
 .group         0x0000000000000000        0xc /mnt/c/users/isaacstalley/documents/github/libopencm3/lib/libopencm3_stm32f4.a(usb_dwc_common.o)
 .group         0x0000000000000000        0xc /mnt/c/users/isaacstalley/documents/github/libopencm3/lib/libopencm3_stm32f4.a(usb_dwc_common.o)
 .text          0x0000000000000000        0x0 /mnt/c/users/isaacstalley/documents/github/libopencm3/lib/libopencm3_stm32f4.a(usb_dwc_common.o)
 .data          0x0000000000000000        0x0 /mnt/c/users/isaacstalley/documents/github/libopencm3/lib/libopencm3_stm32f4.a(usb_dwc_common.o)
 .bss           0x0000000000000000        0x0 /mnt/c/users/isaacstalley/documents/github/libopencm3/lib/libopencm3_stm32f4.a(usb_dwc_common.o)
 .debug_macro   0x0000000000000000      0xa6c /mnt/c/users/isaacstalley/documents/github/libopencm3/lib/libopencm3_stm32f4.a(usb_dwc_common.o)
 .debug_macro   0x0000000000000000       0x22 /mnt/c/users/isaacstalley/documents/github/libopencm3/lib/libopencm3_stm32f4.a(usb_dwc_common.o)
 .debug_macro   0x0000000000000000       0x52 /mnt/c/users/isaacstalley/documents/github/libopencm3/lib/libopencm3_stm32f4.a(usb_dwc_common.o)
 .debug_macro   0x0000000000000000       0x18 /mnt/c/users/isaacstalley/documents/github/libopencm3/lib/libopencm3_stm32f4.a(usb_dwc_common.o)
 .debug_macro   0x0000000000000000       0x5c /mnt/c/users/isaacstalley/documents/github/libopencm3/lib/libopencm3_stm32f4.a(usb_dwc_common.o)
 .debug_macro   0x0000000000000000       0x35 /mnt/c/users/isaacstalley/documents/github/libopencm3/lib/libopencm3_stm32f4.a(usb_dwc_common.o)
 .debug_macro   0x0000000000000000       0x34 /mnt/c/users/isaacstalley/documents/github/libopencm3/lib/libopencm3_stm32f4.a(usb_dwc_common.o)
 .debug_macro   0x0000000000000000      0x16d /mnt/c/users/isaacstalley/documents/github/libopencm3/lib/libopencm3_stm32f4.a(usb_dwc_common.o)
 .debug_macro   0x0000000000000000       0x16 /mnt/c/users/isaacstalley/documents/github/libopencm3/lib/libopencm3_stm32f4.a(usb_dwc_common.o)
 .debug_macro   0x0000000000000000       0x43 /mnt/c/users/isaacstalley/documents/github/libopencm3/lib/libopencm3_stm32f4.a(usb_dwc_common.o)
 .debug_macro   0x0000000000000000       0x57 /mnt/c/users/isaacstalley/documents/github/libopencm3/lib/libopencm3_stm32f4.a(usb_dwc_common.o)
 .debug_macro   0x0000000000000000       0x34 /mnt/c/users/isaacstalley/documents/github/libopencm3/lib/libopencm3_stm32f4.a(usb_dwc_common.o)
 .debug_macro   0x0000000000000000       0x10 /mnt/c/users/isaacstalley/documents/github/libopencm3/lib/libopencm3_stm32f4.a(usb_dwc_common.o)
 .debug_macro   0x0000000000000000       0x52 /mnt/c/users/isaacstalley/documents/github/libopencm3/lib/libopencm3_stm32f4.a(usb_dwc_common.o)
 .debug_macro   0x0000000000000000      0x182 /mnt/c/users/isaacstalley/documents/github/libopencm3/lib/libopencm3_stm32f4.a(usb_dwc_common.o)
 .debug_macro   0x0000000000000000      0x356 /mnt/c/users/isaacstalley/documents/github/libopencm3/lib/libopencm3_stm32f4.a(usb_dwc_common.o)
 .debug_macro   0x0000000000000000       0x10 /mnt/c/users/isaacstalley/documents/github/libopencm3/lib/libopencm3_stm32f4.a(usb_dwc_common.o)
 .debug_macro   0x0000000000000000       0x35 /mnt/c/users/isaacstalley/documents/github/libopencm3/lib/libopencm3_stm32f4.a(usb_dwc_common.o)
 .debug_macro   0x0000000000000000       0x1c /mnt/c/users/isaacstalley/documents/github/libopencm3/lib/libopencm3_stm32f4.a(usb_dwc_common.o)
 .debug_macro   0x0000000000000000      0x34e /mnt/c/users/isaacstalley/documents/github/libopencm3/lib/libopencm3_stm32f4.a(usb_dwc_common.o)
 .debug_macro   0x0000000000000000       0x22 /mnt/c/users/isaacstalley/documents/github/libopencm3/lib/libopencm3_stm32f4.a(usb_dwc_common.o)
 .debug_macro   0x0000000000000000       0xe8 /mnt/c/users/isaacstalley/documents/github/libopencm3/lib/libopencm3_stm32f4.a(usb_dwc_common.o)
 .debug_macro   0x0000000000000000      0x1a2 /mnt/c/users/isaacstalley/documents/github/libopencm3/lib/libopencm3_stm32f4.a(usb_dwc_common.o)
 .debug_macro   0x0000000000000000       0x10 /mnt/c/users/isaacstalley/documents/github/libopencm3/lib/libopencm3_stm32f4.a(usb_dwc_common.o)
 .debug_macro   0x0000000000000000      0x8de /mnt/c/users/isaacstalley/documents/github/libopencm3/lib/libopencm3_stm32f4.a(usb_dwc_common.o)
 .debug_macro   0x0000000000000000       0x1c /mnt/c/users/isaacstalley/documents/github/libopencm3/lib/libopencm3_stm32f4.a(usb_dwc_common.o)
 .data          0x0000000000000000        0x0 /usr/lib/gcc/arm-none-eabi/10.3.1/../../../arm-none-eabi/lib/thumb/v7e-m+fp/hard/libc_nano.a(lib_a-memcpy.o)
 .bss           0x0000000000000000        0x0 /usr/lib/gcc/arm-none-eabi/10.3.1/../../../arm-none-eabi/lib/thumb/v7e-m+fp/hard/libc_nano.a(lib_a-memcpy.o)
 .data          0x0000000000000000        0x0 /usr/lib/gcc/arm-none-eabi/10.3.1/../../../arm-none-eabi/lib/thumb/v7e-m+fp/hard/libc_nano.a(lib_a-sprintf.o)
 .bss           0x0000000000000000        0x0 /usr/lib/gcc/arm-none-eabi/10.3.1/../../../arm-none-eabi/lib/thumb/v7e-m+fp/hard/libc_nano.a(lib_a-sprintf.o)
 .data          0x0000000000000000        0x0 /usr/lib/gcc/arm-none-eabi/10.3.1/../../../arm-none-eabi/lib/thumb/v7e-m+fp/hard/libc_nano.a(lib_a-strlen.o)
 .bss           0x0000000000000000        0x0 /usr/lib/gcc/arm-none-eabi/10.3.1/../../../arm-none-eabi/lib/thumb/v7e-m+fp/hard/libc_nano.a(lib_a-strlen.o)
 .text          0x0000000000000000        0x0 /usr/lib/gcc/arm-none-eabi/10.3.1/../../../arm-none-eabi/lib/thumb/v7e-m+fp/hard/libc_nano.a(lib_a-impure.o)
 .bss           0x0000000000000000        0x0 /usr/lib/gcc/arm-none-eabi/10.3.1/../../../arm-none-eabi/lib/thumb/v7e-m+fp/hard/libc_nano.a(lib_a-impure.o)
 .rodata        0x0000000000000000        0x4 /usr/lib/gcc/arm-none-eabi/10.3.1/../../../arm-none-eabi/lib/thumb/v7e-m+fp/hard/libc_nano.a(lib_a-impure.o)
 .data          0x0000000000000000        0x0 /usr/lib/gcc/arm-none-eabi/10.3.1/../../../arm-none-eabi/lib/thumb/v7e-m+fp/hard/libc_nano.a(lib_a-nano-svfprintf.o)
 .bss           0x0000000000000000        0x0 /usr/lib/gcc/arm-none-eabi/10.3.1/../../../arm-none-eabi/lib/thumb/v7e-m+fp/hard/libc_nano.a(lib_a-nano-svfprintf.o)
 .data          0x0000000000000000        0x0 /usr/lib/gcc/arm-none-eabi/10.3.1/../../../arm-none-eabi/lib/thumb/v7e-m+fp/hard/libc_nano.a(lib_a-nano-vfprintf_i.o)
 .bss           0x0000000000000000        0x0 /usr/lib/gcc/arm-none-eabi/10.3.1/../../../arm-none-eabi/lib/thumb/v7e-m+fp/hard/libc_nano.a(lib_a-nano-vfprintf_i.o)
 .data          0x0000000000000000        0x0 /usr/lib/gcc/arm-none-eabi/10.3.1/../../../arm-none-eabi/lib/thumb/v7e-m+fp/hard/libc_nano.a(lib_a-memchr.o)
 .bss           0x0000000000000000        0x0 /usr/lib/gcc/arm-none-eabi/10.3.1/../../../arm-none-eabi/lib/thumb/v7e-m+fp/hard/libc_nano.a(lib_a-memchr.o)
 .data          0x0000000000000000        0x0 /usr/lib/gcc/arm-none-eabi/10.3.1/../../../arm-none-eabi/lib/thumb/v7e-m+fp/hard/libc_nano.a(lib_a-memmove.o)
 .bss           0x0000000000000000        0x0 /usr/lib/gcc/arm-none-eabi/10.3.1/../../../arm-none-eabi/lib/thumb/v7e-m+fp/hard/libc_nano.a(lib_a-memmove.o)
 .data          0x0000000000000000        0x0 /usr/lib/gcc/arm-none-eabi/10.3.1/../../../arm-none-eabi/lib/thumb/v7e-m+fp/hard/libc_nano.a(lib_a-nano-freer.o)
 .bss           0x0000000000000000        0x0 /usr/lib/gcc/arm-none-eabi/10.3.1/../../../arm-none-eabi/lib/thumb/v7e-m+fp/hard/libc_nano.a(lib_a-nano-freer.o)
 .data          0x0000000000000000        0x0 /usr/lib/gcc/arm-none-eabi/10.3.1/../../../arm-none-eabi/lib/thumb/v7e-m+fp/hard/libc_nano.a(lib_a-nano-mallocr.o)
 .data          0x0000000000000000        0x0 /usr/lib/gcc/arm-none-eabi/10.3.1/../../../arm-none-eabi/lib/thumb/v7e-m+fp/hard/libc_nano.a(lib_a-nano-reallocr.o)
 .bss           0x0000000000000000        0x0 /usr/lib/gcc/arm-none-eabi/10.3.1/../../../arm-none-eabi/lib/thumb/v7e-m+fp/hard/libc_nano.a(lib_a-nano-reallocr.o)
 .data          0x0000000000000000        0x0 /usr/lib/gcc/arm-none-eabi/10.3.1/../../../arm-none-eabi/lib/thumb/v7e-m+fp/hard/libc_nano.a(lib_a-sbrkr.o)
 .bss           0x0000000000000000        0x0 /usr/lib/gcc/arm-none-eabi/10.3.1/../../../arm-none-eabi/lib/thumb/v7e-m+fp/hard/libc_nano.a(lib_a-sbrkr.o)
 .data          0x0000000000000000        0x0 /usr/lib/gcc/arm-none-eabi/10.3.1/../../../arm-none-eabi/lib/thumb/v7e-m+fp/hard/libc_nano.a(lib_a-mlock.o)
 .bss           0x0000000000000000        0x0 /usr/lib/gcc/arm-none-eabi/10.3.1/../../../arm-none-eabi/lib/thumb/v7e-m+fp/hard/libc_nano.a(lib_a-mlock.o)
 .data          0x0000000000000000        0x0 /usr/lib/gcc/arm-none-eabi/10.3.1/../../../arm-none-eabi/lib/thumb/v7e-m+fp/hard/libc_nano.a(lib_a-nano-msizer.o)
 .bss           0x0000000000000000        0x0 /usr/lib/gcc/arm-none-eabi/10.3.1/../../../arm-none-eabi/lib/thumb/v7e-m+fp/hard/libc_nano.a(lib_a-nano-msizer.o)
 .text          0x0000000000000000      0x114 /usr/lib/gcc/arm-none-eabi/10.3.1/../../../arm-none-eabi/lib/thumb/v7e-m+fp/hard/libc_nano.a(lib_a-reent.o)
 .data          0x0000000000000000        0x0 /usr/lib/gcc/arm-none-eabi/10.3.1/../../../arm-none-eabi/lib/thumb/v7e-m+fp/hard/libc_nano.a(lib_a-reent.o)
 .data          0x0000000000000000        0x0 /usr/lib/gcc/arm-none-eabi/10.3.1/../../../arm-none-eabi/lib/thumb/v7e-m+fp/hard/libnosys.a(sbrk.o)

Memory Configuration

Name             Origin             Length             Attributes
ram              0x0000000020000000 0x0000000000030000 xrw
rom              0x0000000008000000 0x0000000000200000 xr
ccm              0x0000000010000000 0x0000000000010000 xrw
*default*        0x0000000000000000 0xffffffffffffffff

Linker script and memory map

LOAD build/adc.o
LOAD build/clock.o
LOAD build/font-7x12.o
LOAD build/gfx.o
LOAD build/lcd-spi.o
LOAD build/main.o
LOAD build/sdram.o
LOAD build/spi-mems.o
LOAD build/usb-com.o
START GROUP
LOAD /usr/lib/gcc/arm-none-eabi/10.3.1/thumb/v7e-m+fp/hard/libgcc.a
LOAD /usr/lib/gcc/arm-none-eabi/10.3.1/../../../arm-none-eabi/lib/thumb/v7e-m+fp/hard/libnosys.a
END GROUP
LOAD /mnt/c/users/isaacstalley/documents/github/libopencm3/lib/libopencm3_stm32f4.a
LOAD /usr/lib/gcc/arm-none-eabi/10.3.1/../../../arm-none-eabi/lib/thumb/v7e-m+fp/hard/libstdc++_nano.a
LOAD /usr/lib/gcc/arm-none-eabi/10.3.1/../../../arm-none-eabi/lib/thumb/v7e-m+fp/hard/libm.a
LOAD /usr/lib/gcc/arm-none-eabi/10.3.1/../../../arm-none-eabi/lib/thumb/v7e-m+fp/hard/libc_nano.a
START GROUP
LOAD /usr/lib/gcc/arm-none-eabi/10.3.1/thumb/v7e-m+fp/hard/libgcc.a
LOAD /usr/lib/gcc/arm-none-eabi/10.3.1/../../../arm-none-eabi/lib/thumb/v7e-m+fp/hard/libg_nano.a
LOAD /usr/lib/gcc/arm-none-eabi/10.3.1/../../../arm-none-eabi/lib/thumb/v7e-m+fp/hard/libc_nano.a
END GROUP
START GROUP
LOAD /usr/lib/gcc/arm-none-eabi/10.3.1/thumb/v7e-m+fp/hard/libgcc.a
LOAD /usr/lib/gcc/arm-none-eabi/10.3.1/../../../arm-none-eabi/lib/thumb/v7e-m+fp/hard/libc_nano.a
LOAD /usr/lib/gcc/arm-none-eabi/10.3.1/../../../arm-none-eabi/lib/thumb/v7e-m+fp/hard/libnosys.a
END GROUP
START GROUP
LOAD /usr/lib/gcc/arm-none-eabi/10.3.1/thumb/v7e-m+fp/hard/libgcc.a
LOAD /usr/lib/gcc/arm-none-eabi/10.3.1/../../../arm-none-eabi/lib/thumb/v7e-m+fp/hard/libc_nano.a
LOAD /usr/lib/gcc/arm-none-eabi/10.3.1/../../../arm-none-eabi/lib/thumb/v7e-m+fp/hard/libnosys.a
END GROUP

.text           0x0000000008000000     0x393c
 *(.vectors)
 .vectors       0x0000000008000000      0x1ac /mnt/c/users/isaacstalley/documents/github/libopencm3/lib/libopencm3_stm32f4.a(vector.o)
                0x0000000008000000                vector_table
 *(.text*)
 .text.adc_setup
                0x00000000080001ac       0x3c build/adc.o
                0x00000000080001ac                adc_setup
 .text.read_adc_naiive
                0x00000000080001e8       0x48 build/adc.o
                0x00000000080001e8                read_adc_naiive
 .text.sys_tick_handler
                0x0000000008000230       0x10 build/clock.o
                0x0000000008000230                sys_tick_handler
 .text.msleep   0x0000000008000240       0x14 build/clock.o
                0x0000000008000240                msleep
 .text.clock_setup
                0x0000000008000254       0x28 build/clock.o
                0x0000000008000254                clock_setup
 .text.gfx_drawPixel
                0x000000000800027c       0x2c build/gfx.o
                0x000000000800027c                gfx_drawPixel
 .text.gfx_init
                0x00000000080002a8       0x24 build/gfx.o
                0x00000000080002a8                gfx_init
 .text.gfx_drawLine
                0x00000000080002cc       0xba build/gfx.o
                0x00000000080002cc                gfx_drawLine
 .text.gfx_drawFastVLine
                0x0000000008000386       0x1a build/gfx.o
                0x0000000008000386                gfx_drawFastVLine
 .text.gfx_fillCircleHelper
                0x00000000080003a0      0x116 build/gfx.o
                0x00000000080003a0                gfx_fillCircleHelper
 .text.gfx_fillRect
                0x00000000080004b6       0x30 build/gfx.o
                0x00000000080004b6                gfx_fillRect
 .text.gfx_fillRoundRect
                0x00000000080004e6       0x78 build/gfx.o
                0x00000000080004e6                gfx_fillRoundRect
 *fill*         0x000000000800055e        0x2 
 .text.gfx_drawChar
                0x0000000008000560       0xd4 build/gfx.o
                0x0000000008000560                gfx_drawChar
 .text.gfx_write
                0x0000000008000634       0x74 build/gfx.o
                0x0000000008000634                gfx_write
 .text.gfx_puts
                0x00000000080006a8       0x14 build/gfx.o
                0x00000000080006a8                gfx_puts
 .text.gfx_setCursor
                0x00000000080006bc        0xc build/gfx.o
                0x00000000080006bc                gfx_setCursor
 .text.gfx_setTextSize
                0x00000000080006c8       0x10 build/gfx.o
                0x00000000080006c8                gfx_setTextSize
 .text.lcd_draw_pixel
                0x00000000080006d8       0x18 build/lcd-spi.o
                0x00000000080006d8                lcd_draw_pixel
 .text.lcd_command
                0x00000000080006f0       0x64 build/lcd-spi.o
                0x00000000080006f0                lcd_command
 .text.initialize_display
                0x0000000008000754       0x30 build/lcd-spi.o
                0x0000000008000754                initialize_display
 .text.lcd_show_frame
                0x0000000008000784       0x6c build/lcd-spi.o
                0x0000000008000784                lcd_show_frame
 .text.lcd_spi_init
                0x00000000080007f0       0x9c build/lcd-spi.o
                0x00000000080007f0                lcd_spi_init
 .text.main     0x000000000800088c      0x160 build/main.o
                0x000000000800088c                main
 .text.sdram_init
                0x00000000080009ec       0xf0 build/sdram.o
                0x00000000080009ec                sdram_init
 .text.read_xyz
                0x0000000008000adc       0x80 build/spi-mems.o
                0x0000000008000adc                read_xyz
 .text.write_reg
                0x0000000008000b5c       0x40 build/spi-mems.o
                0x0000000008000b5c                write_reg
 .text.mems_init
                0x0000000008000b9c       0x84 build/spi-mems.o
                0x0000000008000b9c                mems_init
 .text.cdcacm_control_request
                0x0000000008000c20       0x20 build/usb-com.o
 .text.cdcacm_set_config
                0x0000000008000c40       0x4c build/usb-com.o
 .text.cdcacm_data_rx_cb
                0x0000000008000c8c       0x28 build/usb-com.o
 .text.usb_setup
                0x0000000008000cb4       0x74 build/usb-com.o
                0x0000000008000cb4                usb_setup
 .text.adc_power_off
                0x0000000008000d28        0xa /mnt/c/users/isaacstalley/documents/github/libopencm3/lib/libopencm3_stm32f4.a(adc_common_v1.o)
                0x0000000008000d28                adc_power_off
 .text.adc_disable_scan_mode
                0x0000000008000d32        0xa /mnt/c/users/isaacstalley/documents/github/libopencm3/lib/libopencm3_stm32f4.a(adc_common_v1.o)
                0x0000000008000d32                adc_disable_scan_mode
 .text.adc_eoc  0x0000000008000d3c        0x8 /mnt/c/users/isaacstalley/documents/github/libopencm3/lib/libopencm3_stm32f4.a(adc_common_v1.o)
                0x0000000008000d3c                adc_eoc
 .text.adc_read_regular
                0x0000000008000d44        0x4 /mnt/c/users/isaacstalley/documents/github/libopencm3/lib/libopencm3_stm32f4.a(adc_common_v1.o)
                0x0000000008000d44                adc_read_regular
 .text.adc_set_regular_sequence
                0x0000000008000d48       0x5e /mnt/c/users/isaacstalley/documents/github/libopencm3/lib/libopencm3_stm32f4.a(adc_common_v1.o)
                0x0000000008000d48                adc_set_regular_sequence
 .text.adc_start_conversion_regular
                0x0000000008000da6       0x14 /mnt/c/users/isaacstalley/documents/github/libopencm3/lib/libopencm3_stm32f4.a(adc_common_v1.o)
                0x0000000008000da6                adc_start_conversion_regular
 .text.adc_power_on
                0x0000000008000dba        0xa /mnt/c/users/isaacstalley/documents/github/libopencm3/lib/libopencm3_stm32f4.a(adc_common_v1_multi.o)
                0x0000000008000dba                adc_power_on
 .text.adc_set_sample_time_on_all_channels
                0x0000000008000dc4       0x2a /mnt/c/users/isaacstalley/documents/github/libopencm3/lib/libopencm3_stm32f4.a(adc_common_f47.o)
                0x0000000008000dc4                adc_set_sample_time_on_all_channels
 .text.sdram_timing
                0x0000000008000dee       0x4e /mnt/c/users/isaacstalley/documents/github/libopencm3/lib/libopencm3_stm32f4.a(fmc_common_f47.o)
                0x0000000008000dee                sdram_timing
 .text.sdram_command
                0x0000000008000e3c       0x60 /mnt/c/users/isaacstalley/documents/github/libopencm3/lib/libopencm3_stm32f4.a(fmc_common_f47.o)
                0x0000000008000e3c                sdram_command
 .text.gpio_set
                0x0000000008000e9c        0x4 /mnt/c/users/isaacstalley/documents/github/libopencm3/lib/libopencm3_stm32f4.a(gpio_common_all.o)
                0x0000000008000e9c                gpio_set
 .text.gpio_clear
                0x0000000008000ea0        0x6 /mnt/c/users/isaacstalley/documents/github/libopencm3/lib/libopencm3_stm32f4.a(gpio_common_all.o)
                0x0000000008000ea0                gpio_clear
 .text.gpio_mode_setup
                0x0000000008000ea6       0x40 /mnt/c/users/isaacstalley/documents/github/libopencm3/lib/libopencm3_stm32f4.a(gpio_common_f0234.o)
                0x0000000008000ea6                gpio_mode_setup
 .text.gpio_set_output_options
                0x0000000008000ee6       0x36 /mnt/c/users/isaacstalley/documents/github/libopencm3/lib/libopencm3_stm32f4.a(gpio_common_f0234.o)
                0x0000000008000ee6                gpio_set_output_options
 .text.gpio_set_af
                0x0000000008000f1c       0x58 /mnt/c/users/isaacstalley/documents/github/libopencm3/lib/libopencm3_stm32f4.a(gpio_common_f0234.o)
                0x0000000008000f1c                gpio_set_af
 .text.rcc_periph_clock_enable
                0x0000000008000f74       0x1c /mnt/c/users/isaacstalley/documents/github/libopencm3/lib/libopencm3_stm32f4.a(rcc_common_all.o)
                0x0000000008000f74                rcc_periph_clock_enable
 .text.rcc_is_osc_ready
                0x0000000008000f90       0x64 /mnt/c/users/isaacstalley/documents/github/libopencm3/lib/libopencm3_stm32f4.a(rcc.o)
                0x0000000008000f90                rcc_is_osc_ready
 .text.rcc_wait_for_osc_ready
                0x0000000008000ff4       0x10 /mnt/c/users/isaacstalley/documents/github/libopencm3/lib/libopencm3_stm32f4.a(rcc.o)
                0x0000000008000ff4                rcc_wait_for_osc_ready
 .text.rcc_osc_on
                0x0000000008001004       0x74 /mnt/c/users/isaacstalley/documents/github/libopencm3/lib/libopencm3_stm32f4.a(rcc.o)
                0x0000000008001004                rcc_osc_on
 .text.rcc_osc_off
                0x0000000008001078       0x74 /mnt/c/users/isaacstalley/documents/github/libopencm3/lib/libopencm3_stm32f4.a(rcc.o)
                0x0000000008001078                rcc_osc_off
 .text.rcc_set_sysclk_source
                0x00000000080010ec       0x18 /mnt/c/users/isaacstalley/documents/github/libopencm3/lib/libopencm3_stm32f4.a(rcc.o)
                0x00000000080010ec                rcc_set_sysclk_source
 .text.rcc_set_ppre2
                0x0000000008001104       0x18 /mnt/c/users/isaacstalley/documents/github/libopencm3/lib/libopencm3_stm32f4.a(rcc.o)
                0x0000000008001104                rcc_set_ppre2
 .text.rcc_set_ppre1
                0x000000000800111c       0x18 /mnt/c/users/isaacstalley/documents/github/libopencm3/lib/libopencm3_stm32f4.a(rcc.o)
                0x000000000800111c                rcc_set_ppre1
 .text.rcc_set_hpre
                0x0000000008001134       0x18 /mnt/c/users/isaacstalley/documents/github/libopencm3/lib/libopencm3_stm32f4.a(rcc.o)
                0x0000000008001134                rcc_set_hpre
 .text.rcc_set_main_pll_hsi
                0x000000000800114c       0x44 /mnt/c/users/isaacstalley/documents/github/libopencm3/lib/libopencm3_stm32f4.a(rcc.o)
                0x000000000800114c                rcc_set_main_pll_hsi
 .text.rcc_set_main_pll_hse
                0x0000000008001190       0x44 /mnt/c/users/isaacstalley/documents/github/libopencm3/lib/libopencm3_stm32f4.a(rcc.o)
                0x0000000008001190                rcc_set_main_pll_hse
 .text.rcc_clock_setup_pll
                0x00000000080011d4       0xe4 /mnt/c/users/isaacstalley/documents/github/libopencm3/lib/libopencm3_stm32f4.a(rcc.o)
                0x00000000080011d4                rcc_clock_setup_pll
 .text.spi_enable
                0x00000000080012b8        0xa /mnt/c/users/isaacstalley/documents/github/libopencm3/lib/libopencm3_stm32f4.a(spi_common_all.o)
                0x00000000080012b8                spi_enable
 .text.spi_send
                0x00000000080012c2        0xa /mnt/c/users/isaacstalley/documents/github/libopencm3/lib/libopencm3_stm32f4.a(spi_common_all.o)
                0x00000000080012c2                spi_send
 .text.spi_read
                0x00000000080012cc        0xc /mnt/c/users/isaacstalley/documents/github/libopencm3/lib/libopencm3_stm32f4.a(spi_common_all.o)
                0x00000000080012cc                spi_read
 .text.spi_xfer
                0x00000000080012d8        0xe /mnt/c/users/isaacstalley/documents/github/libopencm3/lib/libopencm3_stm32f4.a(spi_common_all.o)
                0x00000000080012d8                spi_xfer
 .text.spi_enable_ss_output
                0x00000000080012e6        0xa /mnt/c/users/isaacstalley/documents/github/libopencm3/lib/libopencm3_stm32f4.a(spi_common_all.o)
                0x00000000080012e6                spi_enable_ss_output
 .text.spi_init_master
                0x00000000080012f0       0x28 /mnt/c/users/isaacstalley/documents/github/libopencm3/lib/libopencm3_stm32f4.a(spi_common_v1.o)
                0x00000000080012f0                spi_init_master
 .text.usbd_init
                0x0000000008001318       0x54 /mnt/c/users/isaacstalley/documents/github/libopencm3/lib/libopencm3_stm32f4.a(usb.o)
                0x0000000008001318                usbd_init
 .text.usbd_poll
                0x000000000800136c        0x8 /mnt/c/users/isaacstalley/documents/github/libopencm3/lib/libopencm3_stm32f4.a(usb.o)
                0x000000000800136c                usbd_poll
 .text.usbd_ep_setup
                0x0000000008001374       0x10 /mnt/c/users/isaacstalley/documents/github/libopencm3/lib/libopencm3_stm32f4.a(usb.o)
                0x0000000008001374                usbd_ep_setup
 .text._usbd_reset
                0x0000000008001384       0x30 /mnt/c/users/isaacstalley/documents/github/libopencm3/lib/libopencm3_stm32f4.a(usb.o)
                0x0000000008001384                _usbd_reset
 .text.usbd_ep_write_packet
                0x00000000080013b4       0x10 /mnt/c/users/isaacstalley/documents/github/libopencm3/lib/libopencm3_stm32f4.a(usb.o)
                0x00000000080013b4                usbd_ep_write_packet
 .text.usbd_ep_read_packet
                0x00000000080013c4       0x10 /mnt/c/users/isaacstalley/documents/github/libopencm3/lib/libopencm3_stm32f4.a(usb.o)
                0x00000000080013c4                usbd_ep_read_packet
 .text.usbd_ep_stall_set
                0x00000000080013d4        0x8 /mnt/c/users/isaacstalley/documents/github/libopencm3/lib/libopencm3_stm32f4.a(usb.o)
                0x00000000080013d4                usbd_ep_stall_set
 .text.usbd_ep_stall_get
                0x00000000080013dc        0x8 /mnt/c/users/isaacstalley/documents/github/libopencm3/lib/libopencm3_stm32f4.a(usb.o)
                0x00000000080013dc                usbd_ep_stall_get
 .text.usbd_ep_nak_set
                0x00000000080013e4        0x8 /mnt/c/users/isaacstalley/documents/github/libopencm3/lib/libopencm3_stm32f4.a(usb.o)
                0x00000000080013e4                usbd_ep_nak_set
 .text.usb_standard_set_address
                0x00000000080013ec       0x28 /mnt/c/users/isaacstalley/documents/github/libopencm3/lib/libopencm3_stm32f4.a(usb_standard.o)
 .text.usb_standard_set_configuration
                0x0000000008001414       0x96 /mnt/c/users/isaacstalley/documents/github/libopencm3/lib/libopencm3_stm32f4.a(usb_standard.o)
 .text.usb_standard_get_configuration
                0x00000000080014aa       0x22 /mnt/c/users/isaacstalley/documents/github/libopencm3/lib/libopencm3_stm32f4.a(usb_standard.o)
 .text.usb_standard_set_interface
                0x00000000080014cc       0x54 /mnt/c/users/isaacstalley/documents/github/libopencm3/lib/libopencm3_stm32f4.a(usb_standard.o)
 .text.usb_standard_get_interface
                0x0000000008001520       0x38 /mnt/c/users/isaacstalley/documents/github/libopencm3/lib/libopencm3_stm32f4.a(usb_standard.o)
 .text.usb_standard_device_get_status
                0x0000000008001558       0x18 /mnt/c/users/isaacstalley/documents/github/libopencm3/lib/libopencm3_stm32f4.a(usb_standard.o)
 .text.usb_standard_endpoint_get_status
                0x0000000008001570       0x2a /mnt/c/users/isaacstalley/documents/github/libopencm3/lib/libopencm3_stm32f4.a(usb_standard.o)
 .text.usb_standard_endpoint_stall
                0x000000000800159a       0x10 /mnt/c/users/isaacstalley/documents/github/libopencm3/lib/libopencm3_stm32f4.a(usb_standard.o)
 .text.usb_standard_endpoint_unstall
                0x00000000080015aa       0x10 /mnt/c/users/isaacstalley/documents/github/libopencm3/lib/libopencm3_stm32f4.a(usb_standard.o)
 .text.usb_standard_get_descriptor
                0x00000000080015ba      0x2a0 /mnt/c/users/isaacstalley/documents/github/libopencm3/lib/libopencm3_stm32f4.a(usb_standard.o)
 .text.usb_standard_interface_get_status
                0x000000000800185a       0x18 /mnt/c/users/isaacstalley/documents/github/libopencm3/lib/libopencm3_stm32f4.a(usb_standard.o)
 .text.usbd_register_set_config_callback
                0x0000000008001872       0x28 /mnt/c/users/isaacstalley/documents/github/libopencm3/lib/libopencm3_stm32f4.a(usb_standard.o)
                0x0000000008001872                usbd_register_set_config_callback
 *fill*         0x000000000800189a        0x2 
 .text._usbd_standard_request_device
                0x000000000800189c       0x4c /mnt/c/users/isaacstalley/documents/github/libopencm3/lib/libopencm3_stm32f4.a(usb_standard.o)
                0x000000000800189c                _usbd_standard_request_device
 .text._usbd_standard_request_interface
                0x00000000080018e8       0x34 /mnt/c/users/isaacstalley/documents/github/libopencm3/lib/libopencm3_stm32f4.a(usb_standard.o)
                0x00000000080018e8                _usbd_standard_request_interface
 .text._usbd_standard_request_endpoint
                0x000000000800191c       0x40 /mnt/c/users/isaacstalley/documents/github/libopencm3/lib/libopencm3_stm32f4.a(usb_standard.o)
                0x000000000800191c                _usbd_standard_request_endpoint
 .text._usbd_standard_request
                0x000000000800195c       0x38 /mnt/c/users/isaacstalley/documents/github/libopencm3/lib/libopencm3_stm32f4.a(usb_standard.o)
                0x000000000800195c                _usbd_standard_request
 .text.usb_control_send_chunk
                0x0000000008001994       0x52 /mnt/c/users/isaacstalley/documents/github/libopencm3/lib/libopencm3_stm32f4.a(usb_control.o)
 .text.usb_control_request_dispatch
                0x00000000080019e6       0x60 /mnt/c/users/isaacstalley/documents/github/libopencm3/lib/libopencm3_stm32f4.a(usb_control.o)
 .text.stall_transaction
                0x0000000008001a46       0x14 /mnt/c/users/isaacstalley/documents/github/libopencm3/lib/libopencm3_stm32f4.a(usb_control.o)
 .text.usb_control_recv_chunk
                0x0000000008001a5a       0x3c /mnt/c/users/isaacstalley/documents/github/libopencm3/lib/libopencm3_stm32f4.a(usb_control.o)
 .text.usb_control_setup_read
                0x0000000008001a96       0x66 /mnt/c/users/isaacstalley/documents/github/libopencm3/lib/libopencm3_stm32f4.a(usb_control.o)
 .text.usbd_register_control_callback
                0x0000000008001afc       0x2c /mnt/c/users/isaacstalley/documents/github/libopencm3/lib/libopencm3_stm32f4.a(usb_control.o)
                0x0000000008001afc                usbd_register_control_callback
 .text._usbd_control_setup
                0x0000000008001b28       0x60 /mnt/c/users/isaacstalley/documents/github/libopencm3/lib/libopencm3_stm32f4.a(usb_control.o)
                0x0000000008001b28                _usbd_control_setup
 .text._usbd_control_out
                0x0000000008001b88       0x82 /mnt/c/users/isaacstalley/documents/github/libopencm3/lib/libopencm3_stm32f4.a(usb_control.o)
                0x0000000008001b88                _usbd_control_out
 .text._usbd_control_in
                0x0000000008001c0a       0x64 /mnt/c/users/isaacstalley/documents/github/libopencm3/lib/libopencm3_stm32f4.a(usb_control.o)
                0x0000000008001c0a                _usbd_control_in
 *fill*         0x0000000008001c6e        0x2 
 .text.stm32f207_usbd_init
                0x0000000008001c70       0x84 /mnt/c/users/isaacstalley/documents/github/libopencm3/lib/libopencm3_stm32f4.a(usb_f207.o)
 .text.blocking_handler
                0x0000000008001cf4        0x2 /mnt/c/users/isaacstalley/documents/github/libopencm3/lib/libopencm3_stm32f4.a(vector.o)
                0x0000000008001cf4                dma2_stream1_isr
                0x0000000008001cf4                tim8_brk_tim12_isr
                0x0000000008001cf4                dma1_stream7_isr
                0x0000000008001cf4                usart3_isr
                0x0000000008001cf4                tim7_isr
                0x0000000008001cf4                dma2d_isr
                0x0000000008001cf4                uart8_isr
                0x0000000008001cf4                dma1_stream2_isr
                0x0000000008001cf4                otg_hs_isr
                0x0000000008001cf4                blocking_handler
                0x0000000008001cf4                tim5_isr
                0x0000000008001cf4                rtc_wkup_isr
                0x0000000008001cf4                otg_fs_isr
                0x0000000008001cf4                spi1_isr
                0x0000000008001cf4                i2c3_er_isr
                0x0000000008001cf4                exti2_isr
                0x0000000008001cf4                spi5_isr
                0x0000000008001cf4                usb_fs_wkup_isr
                0x0000000008001cf4                tamp_stamp_isr
                0x0000000008001cf4                can1_rx1_isr
                0x0000000008001cf4                dma2_stream0_isr
                0x0000000008001cf4                usart1_isr
                0x0000000008001cf4                i2c3_ev_isr
                0x0000000008001cf4                usage_fault_handler
                0x0000000008001cf4                can2_rx0_isr
                0x0000000008001cf4                dma1_stream6_isr
                0x0000000008001cf4                can2_rx1_isr
                0x0000000008001cf4                can1_sce_isr
                0x0000000008001cf4                tim1_cc_isr
                0x0000000008001cf4                can1_tx_isr
                0x0000000008001cf4                tim1_up_tim10_isr
                0x0000000008001cf4                sdio_isr
                0x0000000008001cf4                eth_isr
                0x0000000008001cf4                spi6_isr
                0x0000000008001cf4                dma2_stream5_isr
                0x0000000008001cf4                pvd_isr
                0x0000000008001cf4                can1_rx0_isr
                0x0000000008001cf4                rcc_isr
                0x0000000008001cf4                dma2_stream3_isr
                0x0000000008001cf4                flash_isr
                0x0000000008001cf4                uart4_isr
                0x0000000008001cf4                lcd_tft_isr
                0x0000000008001cf4                rtc_alarm_isr
                0x0000000008001cf4                exti15_10_isr
                0x0000000008001cf4                hash_rng_isr
                0x0000000008001cf4                tim1_trg_com_tim11_isr
                0x0000000008001cf4                hard_fault_handler
                0x0000000008001cf4                exti1_isr
                0x0000000008001cf4                i2c1_ev_isr
                0x0000000008001cf4                usart6_isr
                0x0000000008001cf4                spi2_isr
                0x0000000008001cf4                cryp_isr
                0x0000000008001cf4                nvic_wwdg_isr
                0x0000000008001cf4                dma1_stream1_isr
                0x0000000008001cf4                dma2_stream4_isr
                0x0000000008001cf4                exti3_isr
                0x0000000008001cf4                tim3_isr
                0x0000000008001cf4                usart2_isr
                0x0000000008001cf4                sai1_isr
                0x0000000008001cf4                fpu_isr
                0x0000000008001cf4                dma1_stream4_isr
                0x0000000008001cf4                i2c2_er_isr
                0x0000000008001cf4                i2c2_ev_isr
                0x0000000008001cf4                uart5_isr
                0x0000000008001cf4                dma2_stream6_isr
                0x0000000008001cf4                spi4_isr
                0x0000000008001cf4                adc_isr
                0x0000000008001cf4                dma2_stream7_isr
                0x0000000008001cf4                tim8_up_tim13_isr
                0x0000000008001cf4                fsmc_isr
                0x0000000008001cf4                exti4_isr
                0x0000000008001cf4                tim6_dac_isr
                0x0000000008001cf4                dma1_stream3_isr
                0x0000000008001cf4                tim8_trg_com_tim14_isr
                0x0000000008001cf4                mem_manage_handler
                0x0000000008001cf4                lcd_tft_err_isr
                0x0000000008001cf4                can2_tx_isr
                0x0000000008001cf4                exti9_5_isr
                0x0000000008001cf4                tim1_brk_tim9_isr
                0x0000000008001cf4                uart7_isr
                0x0000000008001cf4                can2_sce_isr
                0x0000000008001cf4                tim4_isr
                0x0000000008001cf4                otg_hs_wkup_isr
                0x0000000008001cf4                i2c1_er_isr
                0x0000000008001cf4                dma1_stream0_isr
                0x0000000008001cf4                tim8_cc_isr
                0x0000000008001cf4                dcmi_isr
                0x0000000008001cf4                dma2_stream2_isr
                0x0000000008001cf4                eth_wkup_isr
                0x0000000008001cf4                bus_fault_handler
                0x0000000008001cf4                otg_hs_ep1_out_isr
                0x0000000008001cf4                spi3_isr
                0x0000000008001cf4                dma1_stream5_isr
                0x0000000008001cf4                otg_hs_ep1_in_isr
                0x0000000008001cf4                tim2_isr
                0x0000000008001cf4                exti0_isr
 .text.null_handler
                0x0000000008001cf6        0x2 /mnt/c/users/isaacstalley/documents/github/libopencm3/lib/libopencm3_stm32f4.a(vector.o)
                0x0000000008001cf6                null_handler
                0x0000000008001cf6                sv_call_handler
                0x0000000008001cf6                pend_sv_handler
                0x0000000008001cf6                debug_monitor_handler
                0x0000000008001cf6                nmi_handler
 .text.reset_handler
                0x0000000008001cf8       0xa0 /mnt/c/users/isaacstalley/documents/github/libopencm3/lib/libopencm3_stm32f4.a(vector.o)
                0x0000000008001cf8                reset_handler
 .text.systick_set_reload
                0x0000000008001d98        0xc /mnt/c/users/isaacstalley/documents/github/libopencm3/lib/libopencm3_stm32f4.a(systick.o)
                0x0000000008001d98                systick_set_reload
 .text.systick_set_clocksource
                0x0000000008001da4       0x14 /mnt/c/users/isaacstalley/documents/github/libopencm3/lib/libopencm3_stm32f4.a(systick.o)
                0x0000000008001da4                systick_set_clocksource
 .text.systick_interrupt_enable
                0x0000000008001db8        0xe /mnt/c/users/isaacstalley/documents/github/libopencm3/lib/libopencm3_stm32f4.a(systick.o)
                0x0000000008001db8                systick_interrupt_enable
 .text.systick_counter_enable
                0x0000000008001dc6        0xe /mnt/c/users/isaacstalley/documents/github/libopencm3/lib/libopencm3_stm32f4.a(systick.o)
                0x0000000008001dc6                systick_counter_enable
 .text.flash_set_ws
                0x0000000008001dd4       0x18 /mnt/c/users/isaacstalley/documents/github/libopencm3/lib/libopencm3_stm32f4.a(flash_common_all.o)
                0x0000000008001dd4                flash_set_ws
 .text.flash_dcache_enable
                0x0000000008001dec       0x14 /mnt/c/users/isaacstalley/documents/github/libopencm3/lib/libopencm3_stm32f4.a(flash_common_idcache.o)
                0x0000000008001dec                flash_dcache_enable
 .text.flash_dcache_disable
                0x0000000008001e00       0x14 /mnt/c/users/isaacstalley/documents/github/libopencm3/lib/libopencm3_stm32f4.a(flash_common_idcache.o)
                0x0000000008001e00                flash_dcache_disable
 .text.flash_icache_enable
                0x0000000008001e14       0x14 /mnt/c/users/isaacstalley/documents/github/libopencm3/lib/libopencm3_stm32f4.a(flash_common_idcache.o)
                0x0000000008001e14                flash_icache_enable
 .text.flash_icache_disable
                0x0000000008001e28       0x14 /mnt/c/users/isaacstalley/documents/github/libopencm3/lib/libopencm3_stm32f4.a(flash_common_idcache.o)
                0x0000000008001e28                flash_icache_disable
 .text.pwr_set_vos_scale
                0x0000000008001e3c       0x18 /mnt/c/users/isaacstalley/documents/github/libopencm3/lib/libopencm3_stm32f4.a(pwr.o)
                0x0000000008001e3c                pwr_set_vos_scale
 .text.dwc_set_address
                0x0000000008001e54       0x18 /mnt/c/users/isaacstalley/documents/github/libopencm3/lib/libopencm3_stm32f4.a(usb_dwc_common.o)
                0x0000000008001e54                dwc_set_address
 .text.dwc_ep_setup
                0x0000000008001e6c      0x136 /mnt/c/users/isaacstalley/documents/github/libopencm3/lib/libopencm3_stm32f4.a(usb_dwc_common.o)
                0x0000000008001e6c                dwc_ep_setup
 .text.dwc_endpoints_reset
                0x0000000008001fa2       0x4c /mnt/c/users/isaacstalley/documents/github/libopencm3/lib/libopencm3_stm32f4.a(usb_dwc_common.o)
                0x0000000008001fa2                dwc_endpoints_reset
 .text.dwc_ep_stall_set
                0x0000000008001fee       0x88 /mnt/c/users/isaacstalley/documents/github/libopencm3/lib/libopencm3_stm32f4.a(usb_dwc_common.o)
                0x0000000008001fee                dwc_ep_stall_set
 .text.dwc_ep_stall_get
                0x0000000008002076       0x28 /mnt/c/users/isaacstalley/documents/github/libopencm3/lib/libopencm3_stm32f4.a(usb_dwc_common.o)
                0x0000000008002076                dwc_ep_stall_get
 .text.dwc_ep_nak_set
                0x000000000800209e       0x28 /mnt/c/users/isaacstalley/documents/github/libopencm3/lib/libopencm3_stm32f4.a(usb_dwc_common.o)
                0x000000000800209e                dwc_ep_nak_set
 .text.dwc_ep_write_packet
                0x00000000080020c6       0x52 /mnt/c/users/isaacstalley/documents/github/libopencm3/lib/libopencm3_stm32f4.a(usb_dwc_common.o)
                0x00000000080020c6                dwc_ep_write_packet
 .text.dwc_ep_read_packet
                0x0000000008002118       0x74 /mnt/c/users/isaacstalley/documents/github/libopencm3/lib/libopencm3_stm32f4.a(usb_dwc_common.o)
                0x0000000008002118                dwc_ep_read_packet
 .text.dwc_poll
                0x000000000800218c      0x206 /mnt/c/users/isaacstalley/documents/github/libopencm3/lib/libopencm3_stm32f4.a(usb_dwc_common.o)
                0x000000000800218c                dwc_poll
 .text.dwc_disconnect
                0x0000000008002392       0x1c /mnt/c/users/isaacstalley/documents/github/libopencm3/lib/libopencm3_stm32f4.a(usb_dwc_common.o)
                0x0000000008002392                dwc_disconnect
 *fill*         0x00000000080023ae        0x2 
 .text          0x00000000080023b0      0x134 /usr/lib/gcc/arm-none-eabi/10.3.1/../../../arm-none-eabi/lib/thumb/v7e-m+fp/hard/libc_nano.a(lib_a-memcpy.o)
                0x00000000080023b0                memcpy
 .text          0x00000000080024e4       0x78 /usr/lib/gcc/arm-none-eabi/10.3.1/../../../arm-none-eabi/lib/thumb/v7e-m+fp/hard/libc_nano.a(lib_a-sprintf.o)
                0x00000000080024e4                _siprintf_r
                0x00000000080024e4                _sprintf_r
                0x000000000800251c                sprintf
                0x000000000800251c                siprintf
 *fill*         0x000000000800255c       0x24 
 .text          0x0000000008002580       0xdc /usr/lib/gcc/arm-none-eabi/10.3.1/../../../arm-none-eabi/lib/thumb/v7e-m+fp/hard/libc_nano.a(lib_a-strlen.o)
                0x0000000008002580                strlen
 .text          0x000000000800265c      0x3f0 /usr/lib/gcc/arm-none-eabi/10.3.1/../../../arm-none-eabi/lib/thumb/v7e-m+fp/hard/libc_nano.a(lib_a-nano-svfprintf.o)
                0x000000000800265c                __ssputs_r
                0x0000000008002720                __ssprint_r
                0x0000000008002818                _svfprintf_r
                0x0000000008002818                _svfiprintf_r
 .text          0x0000000008002a4c      0x3dc /usr/lib/gcc/arm-none-eabi/10.3.1/../../../arm-none-eabi/lib/thumb/v7e-m+fp/hard/libc_nano.a(lib_a-nano-vfprintf_i.o)
                0x0000000008002a4c                _printf_common
                0x0000000008002b78                _printf_i
 *fill*         0x0000000008002e28        0x8 
 .text          0x0000000008002e30       0xa0 /usr/lib/gcc/arm-none-eabi/10.3.1/../../../arm-none-eabi/lib/thumb/v7e-m+fp/hard/libc_nano.a(lib_a-memchr.o)
                0x0000000008002e30                memchr
 .text          0x0000000008002ed0       0xf8 /usr/lib/gcc/arm-none-eabi/10.3.1/../../../arm-none-eabi/lib/thumb/v7e-m+fp/hard/libc_nano.a(lib_a-memmove.o)
                0x0000000008002ed0                memmove
 .text          0x0000000008002fc8       0xc4 /usr/lib/gcc/arm-none-eabi/10.3.1/../../../arm-none-eabi/lib/thumb/v7e-m+fp/hard/libc_nano.a(lib_a-nano-freer.o)
                0x0000000008002fc8                _free_r
 .text          0x000000000800308c       0xb4 /usr/lib/gcc/arm-none-eabi/10.3.1/../../../arm-none-eabi/lib/thumb/v7e-m+fp/hard/libc_nano.a(lib_a-nano-mallocr.o)
                0x000000000800308c                _malloc_r
 .text          0x0000000008003140       0x50 /usr/lib/gcc/arm-none-eabi/10.3.1/../../../arm-none-eabi/lib/thumb/v7e-m+fp/hard/libc_nano.a(lib_a-nano-reallocr.o)
                0x0000000008003140                _realloc_r
 .text          0x0000000008003190       0x24 /usr/lib/gcc/arm-none-eabi/10.3.1/../../../arm-none-eabi/lib/thumb/v7e-m+fp/hard/libc_nano.a(lib_a-sbrkr.o)
                0x0000000008003190                _sbrk_r
 .text          0x00000000080031b4        0x8 /usr/lib/gcc/arm-none-eabi/10.3.1/../../../arm-none-eabi/lib/thumb/v7e-m+fp/hard/libc_nano.a(lib_a-mlock.o)
                0x00000000080031b4                __malloc_lock
                0x00000000080031b8                __malloc_unlock
 .text          0x00000000080031bc       0x14 /usr/lib/gcc/arm-none-eabi/10.3.1/../../../arm-none-eabi/lib/thumb/v7e-m+fp/hard/libc_nano.a(lib_a-nano-msizer.o)
                0x00000000080031bc                _malloc_usable_size_r
 .text          0x00000000080031d0       0x1c /usr/lib/gcc/arm-none-eabi/10.3.1/../../../arm-none-eabi/lib/thumb/v7e-m+fp/hard/libnosys.a(sbrk.o)
                0x00000000080031d0                _sbrk
                0x00000000080031ec                . = ALIGN (0x4)
 *(.rodata*)
 .rodata.mcm_font
                0x00000000080031ec      0x480 build/gfx.o
 .rodata.cmd_args
                0x000000000800366c       0x3a build/lcd-spi.o
                0x000000000800366c                cmd_args
 *fill*         0x00000000080036a6        0x2 
 .rodata.initialization
                0x00000000080036a8       0x50 build/lcd-spi.o
 .rodata.main.str1.4
                0x00000000080036f8       0x41 build/main.o
 *fill*         0x0000000008003739        0x3 
 .rodata.sdram_pins
                0x000000000800373c       0x30 build/sdram.o
 .rodata.str1.4
                0x000000000800376c       0x31 build/usb-com.o
 *fill*         0x000000000800379d        0x3 
 .rodata.cdcacm_functional_descriptors
                0x00000000080037a0       0x13 build/usb-com.o
 *fill*         0x00000000080037b3        0x1 
 .rodata.comm_endp
                0x00000000080037b4        0xf build/usb-com.o
 *fill*         0x00000000080037c3        0x1 
 .rodata.comm_iface
                0x00000000080037c4       0x15 build/usb-com.o
 *fill*         0x00000000080037d9        0x3 
 .rodata.config
                0x00000000080037dc        0xd build/usb-com.o
 *fill*         0x00000000080037e9        0x3 
 .rodata.data_endp
                0x00000000080037ec       0x1e build/usb-com.o
 *fill*         0x000000000800380a        0x2 
 .rodata.data_iface
                0x000000000800380c       0x15 build/usb-com.o
 *fill*         0x0000000008003821        0x3 
 .rodata.dev    0x0000000008003824       0x12 build/usb-com.o
 *fill*         0x0000000008003836        0x2 
 .rodata.ifaces
                0x0000000008003838       0x20 build/usb-com.o
 .rodata.CSWTCH.2
                0x0000000008003858        0x3 /mnt/c/users/isaacstalley/documents/github/libopencm3/lib/libopencm3_stm32f4.a(fmc_common_f47.o)
 *fill*         0x000000000800385b        0x1 
 .rodata.rcc_hse_8mhz_3v3
                0x000000000800385c       0x70 /mnt/c/users/isaacstalley/documents/github/libopencm3/lib/libopencm3_stm32f4.a(rcc.o)
                0x000000000800385c                rcc_hse_8mhz_3v3
 .rodata.stm32f207_usb_driver
                0x00000000080038cc       0x34 /mnt/c/users/isaacstalley/documents/github/libopencm3/lib/libopencm3_stm32f4.a(usb_f207.o)
                0x00000000080038cc                stm32f207_usb_driver
 .rodata.str1.4
                0x0000000008003900       0x13 /usr/lib/gcc/arm-none-eabi/10.3.1/../../../arm-none-eabi/lib/thumb/v7e-m+fp/hard/libc_nano.a(lib_a-nano-svfprintf.o)
 *fill*         0x0000000008003913        0x1 
 .rodata.str1.4
                0x0000000008003914       0x25 /usr/lib/gcc/arm-none-eabi/10.3.1/../../../arm-none-eabi/lib/thumb/v7e-m+fp/hard/libc_nano.a(lib_a-nano-vfprintf_i.o)
                0x000000000800393c                . = ALIGN (0x4)
 *fill*         0x0000000008003939        0x3 

.glue_7         0x000000000800393c        0x0
 .glue_7        0x000000000800393c        0x0 linker stubs

.glue_7t        0x000000000800393c        0x0
 .glue_7t       0x000000000800393c        0x0 linker stubs

.vfp11_veneer   0x000000000800393c        0x0
 .vfp11_veneer  0x000000000800393c        0x0 linker stubs

.v4_bx          0x000000000800393c        0x0
 .v4_bx         0x000000000800393c        0x0 linker stubs

.iplt           0x000000000800393c        0x0
 .iplt          0x000000000800393c        0x0 build/adc.o

.rel.dyn        0x000000000800393c        0x0
 .rel.iplt      0x000000000800393c        0x0 build/adc.o

.preinit_array  0x000000000800393c        0x0
                0x000000000800393c                . = ALIGN (0x4)
                0x000000000800393c                __preinit_array_start = .
 *(.preinit_array)
                0x000000000800393c                __preinit_array_end = .

.init_array     0x000000000800393c        0x0
                0x000000000800393c                . = ALIGN (0x4)
                0x000000000800393c                __init_array_start = .
 *(SORT_BY_NAME(.init_array.*))
 *(.init_array)
                0x000000000800393c                __init_array_end = .

.fini_array     0x000000000800393c        0x0
                0x000000000800393c                . = ALIGN (0x4)
                0x000000000800393c                __fini_array_start = .
 *(.fini_array)
 *(SORT_BY_NAME(.fini_array.*))
                0x000000000800393c                __fini_array_end = .

.ARM.extab
 *(.ARM.extab*)

.ARM.exidx      0x000000000800393c        0x0
                0x000000000800393c                __exidx_start = .
 *(.ARM.exidx*)
                0x000000000800393c                __exidx_end = .
                0x000000000800393c                . = ALIGN (0x4)
                0x000000000800393c                _etext = .

.noinit
 *(.noinit*)
                0x000000000800393c                . = ALIGN (0x4)

.data           0x0000000020000000       0x98 load address 0x000000000800393c
                0x0000000020000000                _data = .
 *(.data*)
 .data.timing   0x0000000020000000       0x1c build/sdram.o
 .data.usb_strings
                0x000000002000001c        0xc build/usb-com.o
 .data.rcc_ahb_frequency
                0x0000000020000028        0x4 /mnt/c/users/isaacstalley/documents/github/libopencm3/lib/libopencm3_stm32f4.a(rcc.o)
                0x0000000020000028                rcc_ahb_frequency
 .data.rcc_apb1_frequency
                0x000000002000002c        0x4 /mnt/c/users/isaacstalley/documents/github/libopencm3/lib/libopencm3_stm32f4.a(rcc.o)
                0x000000002000002c                rcc_apb1_frequency
 .data.rcc_apb2_frequency
                0x0000000020000030        0x4 /mnt/c/users/isaacstalley/documents/github/libopencm3/lib/libopencm3_stm32f4.a(rcc.o)
                0x0000000020000030                rcc_apb2_frequency
 .data          0x0000000020000034       0x64 /usr/lib/gcc/arm-none-eabi/10.3.1/../../../arm-none-eabi/lib/thumb/v7e-m+fp/hard/libc_nano.a(lib_a-impure.o)
                0x0000000020000034                _impure_ptr
 *(.ramtext*)
                0x0000000020000098                . = ALIGN (0x4)
                0x0000000020000098                _edata = .
                0x000000000800393c                _data_loadaddr = LOADADDR (.data)

.igot.plt       0x0000000020000098        0x0 load address 0x00000000080039d4
 .igot.plt      0x0000000020000098        0x0 build/adc.o

.bss            0x0000000020000098      0x1b4 load address 0x00000000080039d4
 *(.bss*)
 .bss.system_millis
                0x0000000020000098        0x4 build/clock.o
 .bss.__gfx_state
                0x000000002000009c       0x14 build/gfx.o
                0x000000002000009c                __gfx_state
 .bss.finished_frame
                0x00000000200000b0        0x4 build/lcd-spi.o
                0x00000000200000b0                finished_frame
 .bss.forming_frame
                0x00000000200000b4        0x4 build/lcd-spi.o
                0x00000000200000b4                forming_frame
 .bss.usbd_control_buffer
                0x00000000200000b8       0x80 build/usb-com.o
                0x00000000200000b8                usbd_control_buffer
 .bss.usbd_dev  0x0000000020000138      0x104 /mnt/c/users/isaacstalley/documents/github/libopencm3/lib/libopencm3_stm32f4.a(usb_f207.o)
 .bss           0x000000002000023c        0x8 /usr/lib/gcc/arm-none-eabi/10.3.1/../../../arm-none-eabi/lib/thumb/v7e-m+fp/hard/libc_nano.a(lib_a-nano-mallocr.o)
                0x000000002000023c                __malloc_free_list
                0x0000000020000240                __malloc_sbrk_start
 .bss           0x0000000020000244        0x4 /usr/lib/gcc/arm-none-eabi/10.3.1/../../../arm-none-eabi/lib/thumb/v7e-m+fp/hard/libc_nano.a(lib_a-reent.o)
                0x0000000020000244                errno
 .bss           0x0000000020000248        0x4 /usr/lib/gcc/arm-none-eabi/10.3.1/../../../arm-none-eabi/lib/thumb/v7e-m+fp/hard/libnosys.a(sbrk.o)
 *(COMMON)
                0x000000002000024c                . = ALIGN (0x4)
                0x000000002000024c                _ebss = .

.ccm            0x0000000010000000        0x0
                0x0000000010000000                _ccm = .
 *(.ccmram*)
                0x0000000010000000                . = ALIGN (0x4)
                0x0000000010000000                _eccm = .

/DISCARD/
 *(.eh_frame)
                0x0000000010000000                . = ALIGN (0x4)
                0x0000000010000000                end = .
                0x0000000020030000                PROVIDE (_stack = (ORIGIN (ram) + LENGTH (ram)))
OUTPUT(build/firmware.elf elf32-littlearm)
LOAD linker stubs

.debug_info     0x0000000000000000    0x15647
 .debug_info    0x0000000000000000      0x6bd build/adc.o
 .debug_info    0x00000000000006bd      0x2f0 build/clock.o
 .debug_info    0x00000000000009ad     0x17df build/gfx.o
 .debug_info    0x000000000000218c      0xa23 build/lcd-spi.o
 .debug_info    0x0000000000002baf      0x4f3 build/main.o
 .debug_info    0x00000000000030a2      0x885 build/sdram.o
 .debug_info    0x0000000000003927      0x844 build/spi-mems.o
 .debug_info    0x000000000000416b      0xf67 build/usb-com.o
 .debug_info    0x00000000000050d2      0x8c5 /mnt/c/users/isaacstalley/documents/github/libopencm3/lib/libopencm3_stm32f4.a(adc_common_v1.o)
 .debug_info    0x0000000000005997      0x3c3 /mnt/c/users/isaacstalley/documents/github/libopencm3/lib/libopencm3_stm32f4.a(adc_common_v1_multi.o)
 .debug_info    0x0000000000005d5a      0x18d /mnt/c/users/isaacstalley/documents/github/libopencm3/lib/libopencm3_stm32f4.a(adc_common_f47.o)
 .debug_info    0x0000000000005ee7      0x209 /mnt/c/users/isaacstalley/documents/github/libopencm3/lib/libopencm3_stm32f4.a(fmc_common_f47.o)
 .debug_info    0x00000000000060f0      0x24e /mnt/c/users/isaacstalley/documents/github/libopencm3/lib/libopencm3_stm32f4.a(gpio_common_all.o)
 .debug_info    0x000000000000633e      0x20f /mnt/c/users/isaacstalley/documents/github/libopencm3/lib/libopencm3_stm32f4.a(gpio_common_f0234.o)
 .debug_info    0x000000000000654d      0x950 /mnt/c/users/isaacstalley/documents/github/libopencm3/lib/libopencm3_stm32f4.a(rcc_common_all.o)
 .debug_info    0x0000000000006e9d     0x1027 /mnt/c/users/isaacstalley/documents/github/libopencm3/lib/libopencm3_stm32f4.a(rcc.o)
 .debug_info    0x0000000000007ec4      0x81c /mnt/c/users/isaacstalley/documents/github/libopencm3/lib/libopencm3_stm32f4.a(spi_common_all.o)
 .debug_info    0x00000000000086e0      0x15e /mnt/c/users/isaacstalley/documents/github/libopencm3/lib/libopencm3_stm32f4.a(spi_common_v1.o)
 .debug_info    0x000000000000883e      0xf56 /mnt/c/users/isaacstalley/documents/github/libopencm3/lib/libopencm3_stm32f4.a(usb.o)
 .debug_info    0x0000000000009794     0x1668 /mnt/c/users/isaacstalley/documents/github/libopencm3/lib/libopencm3_stm32f4.a(usb_standard.o)
 .debug_info    0x000000000000adfc     0x1023 /mnt/c/users/isaacstalley/documents/github/libopencm3/lib/libopencm3_stm32f4.a(usb_control.o)
 .debug_info    0x000000000000be1f      0xeb7 /mnt/c/users/isaacstalley/documents/github/libopencm3/lib/libopencm3_stm32f4.a(usb_f207.o)
 .debug_info    0x000000000000ccd6      0x2e6 /mnt/c/users/isaacstalley/documents/github/libopencm3/lib/libopencm3_stm32f4.a(vector.o)
 .debug_info    0x000000000000cfbc      0x268 /mnt/c/users/isaacstalley/documents/github/libopencm3/lib/libopencm3_stm32f4.a(systick.o)
 .debug_info    0x000000000000d224       0xf0 /mnt/c/users/isaacstalley/documents/github/libopencm3/lib/libopencm3_stm32f4.a(flash_common_all.o)
 .debug_info    0x000000000000d314       0xe8 /mnt/c/users/isaacstalley/documents/github/libopencm3/lib/libopencm3_stm32f4.a(flash_common_idcache.o)
 .debug_info    0x000000000000d3fc       0xdc /mnt/c/users/isaacstalley/documents/github/libopencm3/lib/libopencm3_stm32f4.a(pwr.o)
 .debug_info    0x000000000000d4d8      0xf30 /mnt/c/users/isaacstalley/documents/github/libopencm3/lib/libopencm3_stm32f4.a(usb_dwc_common.o)
 .debug_info    0x000000000000e408       0x26 /usr/lib/gcc/arm-none-eabi/10.3.1/../../../arm-none-eabi/lib/thumb/v7e-m+fp/hard/libc_nano.a(lib_a-memcpy.o)
 .debug_info    0x000000000000e42e      0x926 /usr/lib/gcc/arm-none-eabi/10.3.1/../../../arm-none-eabi/lib/thumb/v7e-m+fp/hard/libc_nano.a(lib_a-sprintf.o)
 .debug_info    0x000000000000ed54       0x26 /usr/lib/gcc/arm-none-eabi/10.3.1/../../../arm-none-eabi/lib/thumb/v7e-m+fp/hard/libc_nano.a(lib_a-strlen.o)
 .debug_info    0x000000000000ed7a      0x863 /usr/lib/gcc/arm-none-eabi/10.3.1/../../../arm-none-eabi/lib/thumb/v7e-m+fp/hard/libc_nano.a(lib_a-impure.o)
 .debug_info    0x000000000000f5dd     0x10d5 /usr/lib/gcc/arm-none-eabi/10.3.1/../../../arm-none-eabi/lib/thumb/v7e-m+fp/hard/libc_nano.a(lib_a-nano-svfprintf.o)
 .debug_info    0x00000000000106b2      0xe9e /usr/lib/gcc/arm-none-eabi/10.3.1/../../../arm-none-eabi/lib/thumb/v7e-m+fp/hard/libc_nano.a(lib_a-nano-vfprintf_i.o)
 .debug_info    0x0000000000011550       0x26 /usr/lib/gcc/arm-none-eabi/10.3.1/../../../arm-none-eabi/lib/thumb/v7e-m+fp/hard/libc_nano.a(lib_a-memchr.o)
 .debug_info    0x0000000000011576      0x152 /usr/lib/gcc/arm-none-eabi/10.3.1/../../../arm-none-eabi/lib/thumb/v7e-m+fp/hard/libc_nano.a(lib_a-memmove.o)
 .debug_info    0x00000000000116c8      0x903 /usr/lib/gcc/arm-none-eabi/10.3.1/../../../arm-none-eabi/lib/thumb/v7e-m+fp/hard/libc_nano.a(lib_a-nano-freer.o)
 .debug_info    0x0000000000011fcb      0xa0c /usr/lib/gcc/arm-none-eabi/10.3.1/../../../arm-none-eabi/lib/thumb/v7e-m+fp/hard/libc_nano.a(lib_a-nano-mallocr.o)
 .debug_info    0x00000000000129d7      0x911 /usr/lib/gcc/arm-none-eabi/10.3.1/../../../arm-none-eabi/lib/thumb/v7e-m+fp/hard/libc_nano.a(lib_a-nano-reallocr.o)
 .debug_info    0x00000000000132e8      0x828 /usr/lib/gcc/arm-none-eabi/10.3.1/../../../arm-none-eabi/lib/thumb/v7e-m+fp/hard/libc_nano.a(lib_a-sbrkr.o)
 .debug_info    0x0000000000013b10      0x7dc /usr/lib/gcc/arm-none-eabi/10.3.1/../../../arm-none-eabi/lib/thumb/v7e-m+fp/hard/libc_nano.a(lib_a-mlock.o)
 .debug_info    0x00000000000142ec      0x840 /usr/lib/gcc/arm-none-eabi/10.3.1/../../../arm-none-eabi/lib/thumb/v7e-m+fp/hard/libc_nano.a(lib_a-nano-msizer.o)
 .debug_info    0x0000000000014b2c      0xa7e /usr/lib/gcc/arm-none-eabi/10.3.1/../../../arm-none-eabi/lib/thumb/v7e-m+fp/hard/libc_nano.a(lib_a-reent.o)
 .debug_info    0x00000000000155aa       0x9d /usr/lib/gcc/arm-none-eabi/10.3.1/../../../arm-none-eabi/lib/thumb/v7e-m+fp/hard/libnosys.a(sbrk.o)

.debug_abbrev   0x0000000000000000     0x46cb
 .debug_abbrev  0x0000000000000000      0x112 build/adc.o
 .debug_abbrev  0x0000000000000112      0x17a build/clock.o
 .debug_abbrev  0x000000000000028c      0x25e build/gfx.o
 .debug_abbrev  0x00000000000004ea      0x1bc build/lcd-spi.o
 .debug_abbrev  0x00000000000006a6       0xed build/main.o
 .debug_abbrev  0x0000000000000793      0x168 build/sdram.o
 .debug_abbrev  0x00000000000008fb      0x136 build/spi-mems.o
 .debug_abbrev  0x0000000000000a31      0x271 build/usb-com.o
 .debug_abbrev  0x0000000000000ca2      0x181 /mnt/c/users/isaacstalley/documents/github/libopencm3/lib/libopencm3_stm32f4.a(adc_common_v1.o)
 .debug_abbrev  0x0000000000000e23      0x167 /mnt/c/users/isaacstalley/documents/github/libopencm3/lib/libopencm3_stm32f4.a(adc_common_v1_multi.o)
 .debug_abbrev  0x0000000000000f8a       0xea /mnt/c/users/isaacstalley/documents/github/libopencm3/lib/libopencm3_stm32f4.a(adc_common_f47.o)
 .debug_abbrev  0x0000000000001074      0x10c /mnt/c/users/isaacstalley/documents/github/libopencm3/lib/libopencm3_stm32f4.a(fmc_common_f47.o)
 .debug_abbrev  0x0000000000001180      0x116 /mnt/c/users/isaacstalley/documents/github/libopencm3/lib/libopencm3_stm32f4.a(gpio_common_all.o)
 .debug_abbrev  0x0000000000001296       0xbf /mnt/c/users/isaacstalley/documents/github/libopencm3/lib/libopencm3_stm32f4.a(gpio_common_f0234.o)
 .debug_abbrev  0x0000000000001355      0x177 /mnt/c/users/isaacstalley/documents/github/libopencm3/lib/libopencm3_stm32f4.a(rcc_common_all.o)
 .debug_abbrev  0x00000000000014cc      0x2ba /mnt/c/users/isaacstalley/documents/github/libopencm3/lib/libopencm3_stm32f4.a(rcc.o)
 .debug_abbrev  0x0000000000001786      0x197 /mnt/c/users/isaacstalley/documents/github/libopencm3/lib/libopencm3_stm32f4.a(spi_common_all.o)
 .debug_abbrev  0x000000000000191d       0xd2 /mnt/c/users/isaacstalley/documents/github/libopencm3/lib/libopencm3_stm32f4.a(spi_common_v1.o)
 .debug_abbrev  0x00000000000019ef      0x27c /mnt/c/users/isaacstalley/documents/github/libopencm3/lib/libopencm3_stm32f4.a(usb.o)
 .debug_abbrev  0x0000000000001c6b      0x4b8 /mnt/c/users/isaacstalley/documents/github/libopencm3/lib/libopencm3_stm32f4.a(usb_standard.o)
 .debug_abbrev  0x0000000000002123      0x3a8 /mnt/c/users/isaacstalley/documents/github/libopencm3/lib/libopencm3_stm32f4.a(usb_control.o)
 .debug_abbrev  0x00000000000024cb      0x213 /mnt/c/users/isaacstalley/documents/github/libopencm3/lib/libopencm3_stm32f4.a(usb_f207.o)
 .debug_abbrev  0x00000000000026de      0x15b /mnt/c/users/isaacstalley/documents/github/libopencm3/lib/libopencm3_stm32f4.a(vector.o)
 .debug_abbrev  0x0000000000002839      0x155 /mnt/c/users/isaacstalley/documents/github/libopencm3/lib/libopencm3_stm32f4.a(systick.o)
 .debug_abbrev  0x000000000000298e       0x9a /mnt/c/users/isaacstalley/documents/github/libopencm3/lib/libopencm3_stm32f4.a(flash_common_all.o)
 .debug_abbrev  0x0000000000002a28       0x56 /mnt/c/users/isaacstalley/documents/github/libopencm3/lib/libopencm3_stm32f4.a(flash_common_idcache.o)
 .debug_abbrev  0x0000000000002a7e       0x9c /mnt/c/users/isaacstalley/documents/github/libopencm3/lib/libopencm3_stm32f4.a(pwr.o)
 .debug_abbrev  0x0000000000002b1a      0x399 /mnt/c/users/isaacstalley/documents/github/libopencm3/lib/libopencm3_stm32f4.a(usb_dwc_common.o)
 .debug_abbrev  0x0000000000002eb3       0x14 /usr/lib/gcc/arm-none-eabi/10.3.1/../../../arm-none-eabi/lib/thumb/v7e-m+fp/hard/libc_nano.a(lib_a-memcpy.o)
 .debug_abbrev  0x0000000000002ec7      0x213 /usr/lib/gcc/arm-none-eabi/10.3.1/../../../arm-none-eabi/lib/thumb/v7e-m+fp/hard/libc_nano.a(lib_a-sprintf.o)
 .debug_abbrev  0x00000000000030da       0x14 /usr/lib/gcc/arm-none-eabi/10.3.1/../../../arm-none-eabi/lib/thumb/v7e-m+fp/hard/libc_nano.a(lib_a-strlen.o)
 .debug_abbrev  0x00000000000030ee      0x151 /usr/lib/gcc/arm-none-eabi/10.3.1/../../../arm-none-eabi/lib/thumb/v7e-m+fp/hard/libc_nano.a(lib_a-impure.o)
 .debug_abbrev  0x000000000000323f      0x2ca /usr/lib/gcc/arm-none-eabi/10.3.1/../../../arm-none-eabi/lib/thumb/v7e-m+fp/hard/libc_nano.a(lib_a-nano-svfprintf.o)
 .debug_abbrev  0x0000000000003509      0x25c /usr/lib/gcc/arm-none-eabi/10.3.1/../../../arm-none-eabi/lib/thumb/v7e-m+fp/hard/libc_nano.a(lib_a-nano-vfprintf_i.o)
 .debug_abbrev  0x0000000000003765       0x14 /usr/lib/gcc/arm-none-eabi/10.3.1/../../../arm-none-eabi/lib/thumb/v7e-m+fp/hard/libc_nano.a(lib_a-memchr.o)
 .debug_abbrev  0x0000000000003779       0xc0 /usr/lib/gcc/arm-none-eabi/10.3.1/../../../arm-none-eabi/lib/thumb/v7e-m+fp/hard/libc_nano.a(lib_a-memmove.o)
 .debug_abbrev  0x0000000000003839      0x235 /usr/lib/gcc/arm-none-eabi/10.3.1/../../../arm-none-eabi/lib/thumb/v7e-m+fp/hard/libc_nano.a(lib_a-nano-freer.o)
 .debug_abbrev  0x0000000000003a6e      0x290 /usr/lib/gcc/arm-none-eabi/10.3.1/../../../arm-none-eabi/lib/thumb/v7e-m+fp/hard/libc_nano.a(lib_a-nano-mallocr.o)
 .debug_abbrev  0x0000000000003cfe      0x1d6 /usr/lib/gcc/arm-none-eabi/10.3.1/../../../arm-none-eabi/lib/thumb/v7e-m+fp/hard/libc_nano.a(lib_a-nano-reallocr.o)
 .debug_abbrev  0x0000000000003ed4      0x1d6 /usr/lib/gcc/arm-none-eabi/10.3.1/../../../arm-none-eabi/lib/thumb/v7e-m+fp/hard/libc_nano.a(lib_a-sbrkr.o)
 .debug_abbrev  0x00000000000040aa      0x189 /usr/lib/gcc/arm-none-eabi/10.3.1/../../../arm-none-eabi/lib/thumb/v7e-m+fp/hard/libc_nano.a(lib_a-mlock.o)
 .debug_abbrev  0x0000000000004233      0x191 /usr/lib/gcc/arm-none-eabi/10.3.1/../../../arm-none-eabi/lib/thumb/v7e-m+fp/hard/libc_nano.a(lib_a-nano-msizer.o)
 .debug_abbrev  0x00000000000043c4      0x265 /usr/lib/gcc/arm-none-eabi/10.3.1/../../../arm-none-eabi/lib/thumb/v7e-m+fp/hard/libc_nano.a(lib_a-reent.o)
 .debug_abbrev  0x0000000000004629       0xa2 /usr/lib/gcc/arm-none-eabi/10.3.1/../../../arm-none-eabi/lib/thumb/v7e-m+fp/hard/libnosys.a(sbrk.o)

.debug_loc      0x0000000000000000     0x7d56
 .debug_loc     0x0000000000000000       0x22 build/adc.o
 .debug_loc     0x0000000000000022       0x3a build/clock.o
 .debug_loc     0x000000000000005c     0x13c6 build/gfx.o
 .debug_loc     0x0000000000001422      0x171 build/lcd-spi.o
 .debug_loc     0x0000000000001593       0x37 build/main.o
 .debug_loc     0x00000000000015ca       0xbf build/sdram.o
 .debug_loc     0x0000000000001689       0x9f build/spi-mems.o
 .debug_loc     0x0000000000001728      0x1cb build/usb-com.o
 .debug_loc     0x00000000000018f3      0x44e /mnt/c/users/isaacstalley/documents/github/libopencm3/lib/libopencm3_stm32f4.a(adc_common_v1.o)
 .debug_loc     0x0000000000001d41      0x159 /mnt/c/users/isaacstalley/documents/github/libopencm3/lib/libopencm3_stm32f4.a(adc_common_v1_multi.o)
 .debug_loc     0x0000000000001e9a      0x18c /mnt/c/users/isaacstalley/documents/github/libopencm3/lib/libopencm3_stm32f4.a(adc_common_f47.o)
 .debug_loc     0x0000000000002026      0x590 /mnt/c/users/isaacstalley/documents/github/libopencm3/lib/libopencm3_stm32f4.a(fmc_common_f47.o)
 .debug_loc     0x00000000000025b6       0xbe /mnt/c/users/isaacstalley/documents/github/libopencm3/lib/libopencm3_stm32f4.a(gpio_common_all.o)
 .debug_loc     0x0000000000002674      0x14f /mnt/c/users/isaacstalley/documents/github/libopencm3/lib/libopencm3_stm32f4.a(gpio_common_f0234.o)
 .debug_loc     0x00000000000027c3      0x120 /mnt/c/users/isaacstalley/documents/github/libopencm3/lib/libopencm3_stm32f4.a(rcc_common_all.o)
 .debug_loc     0x00000000000028e3      0x867 /mnt/c/users/isaacstalley/documents/github/libopencm3/lib/libopencm3_stm32f4.a(rcc.o)
 .debug_loc     0x000000000000314a      0x170 /mnt/c/users/isaacstalley/documents/github/libopencm3/lib/libopencm3_stm32f4.a(spi_common_all.o)
 .debug_loc     0x00000000000032ba      0x149 /mnt/c/users/isaacstalley/documents/github/libopencm3/lib/libopencm3_stm32f4.a(spi_common_v1.o)
 .debug_loc     0x0000000000003403      0x544 /mnt/c/users/isaacstalley/documents/github/libopencm3/lib/libopencm3_stm32f4.a(usb.o)
 .debug_loc     0x0000000000003947     0x13bc /mnt/c/users/isaacstalley/documents/github/libopencm3/lib/libopencm3_stm32f4.a(usb_standard.o)
 .debug_loc     0x0000000000004d03      0x83a /mnt/c/users/isaacstalley/documents/github/libopencm3/lib/libopencm3_stm32f4.a(usb_control.o)
 .debug_loc     0x000000000000553d      0x128 /mnt/c/users/isaacstalley/documents/github/libopencm3/lib/libopencm3_stm32f4.a(vector.o)
 .debug_loc     0x0000000000005665      0x192 /mnt/c/users/isaacstalley/documents/github/libopencm3/lib/libopencm3_stm32f4.a(systick.o)
 .debug_loc     0x00000000000057f7       0x47 /mnt/c/users/isaacstalley/documents/github/libopencm3/lib/libopencm3_stm32f4.a(flash_common_all.o)
 .debug_loc     0x000000000000583e       0x47 /mnt/c/users/isaacstalley/documents/github/libopencm3/lib/libopencm3_stm32f4.a(pwr.o)
 .debug_loc     0x0000000000005885      0x8c0 /mnt/c/users/isaacstalley/documents/github/libopencm3/lib/libopencm3_stm32f4.a(usb_dwc_common.o)
 .debug_loc     0x0000000000006145       0xb7 /usr/lib/gcc/arm-none-eabi/10.3.1/../../../arm-none-eabi/lib/thumb/v7e-m+fp/hard/libc_nano.a(lib_a-sprintf.o)
 .debug_loc     0x00000000000061fc      0x82e /usr/lib/gcc/arm-none-eabi/10.3.1/../../../arm-none-eabi/lib/thumb/v7e-m+fp/hard/libc_nano.a(lib_a-nano-svfprintf.o)
 .debug_loc     0x0000000000006a2a      0x5dd /usr/lib/gcc/arm-none-eabi/10.3.1/../../../arm-none-eabi/lib/thumb/v7e-m+fp/hard/libc_nano.a(lib_a-nano-vfprintf_i.o)
 .debug_loc     0x0000000000007007      0x34f /usr/lib/gcc/arm-none-eabi/10.3.1/../../../arm-none-eabi/lib/thumb/v7e-m+fp/hard/libc_nano.a(lib_a-memmove.o)
 .debug_loc     0x0000000000007356      0x203 /usr/lib/gcc/arm-none-eabi/10.3.1/../../../arm-none-eabi/lib/thumb/v7e-m+fp/hard/libc_nano.a(lib_a-nano-freer.o)
 .debug_loc     0x0000000000007559      0x3cd /usr/lib/gcc/arm-none-eabi/10.3.1/../../../arm-none-eabi/lib/thumb/v7e-m+fp/hard/libc_nano.a(lib_a-nano-mallocr.o)
 .debug_loc     0x0000000000007926      0x133 /usr/lib/gcc/arm-none-eabi/10.3.1/../../../arm-none-eabi/lib/thumb/v7e-m+fp/hard/libc_nano.a(lib_a-nano-reallocr.o)
 .debug_loc     0x0000000000007a59       0x6c /usr/lib/gcc/arm-none-eabi/10.3.1/../../../arm-none-eabi/lib/thumb/v7e-m+fp/hard/libc_nano.a(lib_a-sbrkr.o)
 .debug_loc     0x0000000000007ac5       0x86 /usr/lib/gcc/arm-none-eabi/10.3.1/../../../arm-none-eabi/lib/thumb/v7e-m+fp/hard/libc_nano.a(lib_a-nano-msizer.o)
 .debug_loc     0x0000000000007b4b      0x1cd /usr/lib/gcc/arm-none-eabi/10.3.1/../../../arm-none-eabi/lib/thumb/v7e-m+fp/hard/libc_nano.a(lib_a-reent.o)
 .debug_loc     0x0000000000007d18       0x3e /usr/lib/gcc/arm-none-eabi/10.3.1/../../../arm-none-eabi/lib/thumb/v7e-m+fp/hard/libnosys.a(sbrk.o)

.debug_aranges  0x0000000000000000      0xd80
 .debug_aranges
                0x0000000000000000       0x28 build/adc.o
 .debug_aranges
                0x0000000000000028       0x30 build/clock.o
 .debug_aranges
                0x0000000000000058       0xf8 build/gfx.o
 .debug_aranges
                0x0000000000000150       0x40 build/lcd-spi.o
 .debug_aranges
                0x0000000000000190       0x20 build/main.o
 .debug_aranges
                0x00000000000001b0       0x20 build/sdram.o
 .debug_aranges
                0x00000000000001d0       0x30 build/spi-mems.o
 .debug_aranges
                0x0000000000000200       0x38 build/usb-com.o
 .debug_aranges
                0x0000000000000238      0x158 /mnt/c/users/isaacstalley/documents/github/libopencm3/lib/libopencm3_stm32f4.a(adc_common_v1.o)
 .debug_aranges
                0x0000000000000390       0xa8 /mnt/c/users/isaacstalley/documents/github/libopencm3/lib/libopencm3_stm32f4.a(adc_common_v1_multi.o)
 .debug_aranges
                0x0000000000000438       0x40 /mnt/c/users/isaacstalley/documents/github/libopencm3/lib/libopencm3_stm32f4.a(adc_common_f47.o)
 .debug_aranges
                0x0000000000000478       0x28 /mnt/c/users/isaacstalley/documents/github/libopencm3/lib/libopencm3_stm32f4.a(fmc_common_f47.o)
 .debug_aranges
                0x00000000000004a0       0x50 /mnt/c/users/isaacstalley/documents/github/libopencm3/lib/libopencm3_stm32f4.a(gpio_common_all.o)
 .debug_aranges
                0x00000000000004f0       0x30 /mnt/c/users/isaacstalley/documents/github/libopencm3/lib/libopencm3_stm32f4.a(gpio_common_f0234.o)
 .debug_aranges
                0x0000000000000520       0x60 /mnt/c/users/isaacstalley/documents/github/libopencm3/lib/libopencm3_stm32f4.a(rcc_common_all.o)
 .debug_aranges
                0x0000000000000580      0x110 /mnt/c/users/isaacstalley/documents/github/libopencm3/lib/libopencm3_stm32f4.a(rcc.o)
 .debug_aranges
                0x0000000000000690      0x170 /mnt/c/users/isaacstalley/documents/github/libopencm3/lib/libopencm3_stm32f4.a(spi_common_all.o)
 .debug_aranges
                0x0000000000000800       0x30 /mnt/c/users/isaacstalley/documents/github/libopencm3/lib/libopencm3_stm32f4.a(spi_common_v1.o)
 .debug_aranges
                0x0000000000000830       0x90 /mnt/c/users/isaacstalley/documents/github/libopencm3/lib/libopencm3_stm32f4.a(usb.o)
 .debug_aranges
                0x00000000000008c0       0x98 /mnt/c/users/isaacstalley/documents/github/libopencm3/lib/libopencm3_stm32f4.a(usb_standard.o)
 .debug_aranges
                0x0000000000000958       0x60 /mnt/c/users/isaacstalley/documents/github/libopencm3/lib/libopencm3_stm32f4.a(usb_control.o)
 .debug_aranges
                0x00000000000009b8       0x20 /mnt/c/users/isaacstalley/documents/github/libopencm3/lib/libopencm3_stm32f4.a(usb_f207.o)
 .debug_aranges
                0x00000000000009d8       0x30 /mnt/c/users/isaacstalley/documents/github/libopencm3/lib/libopencm3_stm32f4.a(vector.o)
 .debug_aranges
                0x0000000000000a08       0x78 /mnt/c/users/isaacstalley/documents/github/libopencm3/lib/libopencm3_stm32f4.a(systick.o)
 .debug_aranges
                0x0000000000000a80       0x38 /mnt/c/users/isaacstalley/documents/github/libopencm3/lib/libopencm3_stm32f4.a(flash_common_all.o)
 .debug_aranges
                0x0000000000000ab8       0x48 /mnt/c/users/isaacstalley/documents/github/libopencm3/lib/libopencm3_stm32f4.a(flash_common_idcache.o)
 .debug_aranges
                0x0000000000000b00       0x20 /mnt/c/users/isaacstalley/documents/github/libopencm3/lib/libopencm3_stm32f4.a(pwr.o)
 .debug_aranges
                0x0000000000000b20       0x68 /mnt/c/users/isaacstalley/documents/github/libopencm3/lib/libopencm3_stm32f4.a(usb_dwc_common.o)
 .debug_aranges
                0x0000000000000b88       0x20 /usr/lib/gcc/arm-none-eabi/10.3.1/../../../arm-none-eabi/lib/thumb/v7e-m+fp/hard/libc_nano.a(lib_a-memcpy.o)
 .debug_aranges
                0x0000000000000ba8       0x20 /usr/lib/gcc/arm-none-eabi/10.3.1/../../../arm-none-eabi/lib/thumb/v7e-m+fp/hard/libc_nano.a(lib_a-sprintf.o)
 .debug_aranges
                0x0000000000000bc8       0x20 /usr/lib/gcc/arm-none-eabi/10.3.1/../../../arm-none-eabi/lib/thumb/v7e-m+fp/hard/libc_nano.a(lib_a-strlen.o)
 .debug_aranges
                0x0000000000000be8       0x18 /usr/lib/gcc/arm-none-eabi/10.3.1/../../../arm-none-eabi/lib/thumb/v7e-m+fp/hard/libc_nano.a(lib_a-impure.o)
 .debug_aranges
                0x0000000000000c00       0x20 /usr/lib/gcc/arm-none-eabi/10.3.1/../../../arm-none-eabi/lib/thumb/v7e-m+fp/hard/libc_nano.a(lib_a-nano-svfprintf.o)
 .debug_aranges
                0x0000000000000c20       0x20 /usr/lib/gcc/arm-none-eabi/10.3.1/../../../arm-none-eabi/lib/thumb/v7e-m+fp/hard/libc_nano.a(lib_a-nano-vfprintf_i.o)
 .debug_aranges
                0x0000000000000c40       0x20 /usr/lib/gcc/arm-none-eabi/10.3.1/../../../arm-none-eabi/lib/thumb/v7e-m+fp/hard/libc_nano.a(lib_a-memchr.o)
 .debug_aranges
                0x0000000000000c60       0x20 /usr/lib/gcc/arm-none-eabi/10.3.1/../../../arm-none-eabi/lib/thumb/v7e-m+fp/hard/libc_nano.a(lib_a-memmove.o)
 .debug_aranges
                0x0000000000000c80       0x20 /usr/lib/gcc/arm-none-eabi/10.3.1/../../../arm-none-eabi/lib/thumb/v7e-m+fp/hard/libc_nano.a(lib_a-nano-freer.o)
 .debug_aranges
                0x0000000000000ca0       0x20 /usr/lib/gcc/arm-none-eabi/10.3.1/../../../arm-none-eabi/lib/thumb/v7e-m+fp/hard/libc_nano.a(lib_a-nano-mallocr.o)
 .debug_aranges
                0x0000000000000cc0       0x20 /usr/lib/gcc/arm-none-eabi/10.3.1/../../../arm-none-eabi/lib/thumb/v7e-m+fp/hard/libc_nano.a(lib_a-nano-reallocr.o)
 .debug_aranges
                0x0000000000000ce0       0x20 /usr/lib/gcc/arm-none-eabi/10.3.1/../../../arm-none-eabi/lib/thumb/v7e-m+fp/hard/libc_nano.a(lib_a-sbrkr.o)
 .debug_aranges
                0x0000000000000d00       0x20 /usr/lib/gcc/arm-none-eabi/10.3.1/../../../arm-none-eabi/lib/thumb/v7e-m+fp/hard/libc_nano.a(lib_a-mlock.o)
 .debug_aranges
                0x0000000000000d20       0x20 /usr/lib/gcc/arm-none-eabi/10.3.1/../../../arm-none-eabi/lib/thumb/v7e-m+fp/hard/libc_nano.a(lib_a-nano-msizer.o)
 .debug_aranges
                0x0000000000000d40       0x20 /usr/lib/gcc/arm-none-eabi/10.3.1/../../../arm-none-eabi/lib/thumb/v7e-m+fp/hard/libc_nano.a(lib_a-reent.o)
 .debug_aranges
                0x0000000000000d60       0x20 /usr/lib/gcc/arm-none-eabi/10.3.1/../../../arm-none-eabi/lib/thumb/v7e-m+fp/hard/libnosys.a(sbrk.o)

.debug_ranges   0x0000000000000000      0xc70
 .debug_ranges  0x0000000000000000       0x18 build/adc.o
 .debug_ranges  0x0000000000000018       0x20 build/clock.o
 .debug_ranges  0x0000000000000038       0xe8 build/gfx.o
 .debug_ranges  0x0000000000000120       0x30 build/lcd-spi.o
 .debug_ranges  0x0000000000000150       0x10 build/main.o
 .debug_ranges  0x0000000000000160       0x10 build/sdram.o
 .debug_ranges  0x0000000000000170       0x20 build/spi-mems.o
 .debug_ranges  0x0000000000000190       0x28 build/usb-com.o
 .debug_ranges  0x00000000000001b8      0x148 /mnt/c/users/isaacstalley/documents/github/libopencm3/lib/libopencm3_stm32f4.a(adc_common_v1.o)
 .debug_ranges  0x0000000000000300       0x98 /mnt/c/users/isaacstalley/documents/github/libopencm3/lib/libopencm3_stm32f4.a(adc_common_v1_multi.o)
 .debug_ranges  0x0000000000000398       0x30 /mnt/c/users/isaacstalley/documents/github/libopencm3/lib/libopencm3_stm32f4.a(adc_common_f47.o)
 .debug_ranges  0x00000000000003c8       0x18 /mnt/c/users/isaacstalley/documents/github/libopencm3/lib/libopencm3_stm32f4.a(fmc_common_f47.o)
 .debug_ranges  0x00000000000003e0       0x40 /mnt/c/users/isaacstalley/documents/github/libopencm3/lib/libopencm3_stm32f4.a(gpio_common_all.o)
 .debug_ranges  0x0000000000000420       0x20 /mnt/c/users/isaacstalley/documents/github/libopencm3/lib/libopencm3_stm32f4.a(gpio_common_f0234.o)
 .debug_ranges  0x0000000000000440       0x50 /mnt/c/users/isaacstalley/documents/github/libopencm3/lib/libopencm3_stm32f4.a(rcc_common_all.o)
 .debug_ranges  0x0000000000000490      0x148 /mnt/c/users/isaacstalley/documents/github/libopencm3/lib/libopencm3_stm32f4.a(rcc.o)
 .debug_ranges  0x00000000000005d8      0x160 /mnt/c/users/isaacstalley/documents/github/libopencm3/lib/libopencm3_stm32f4.a(spi_common_all.o)
 .debug_ranges  0x0000000000000738       0x20 /mnt/c/users/isaacstalley/documents/github/libopencm3/lib/libopencm3_stm32f4.a(spi_common_v1.o)
 .debug_ranges  0x0000000000000758       0x80 /mnt/c/users/isaacstalley/documents/github/libopencm3/lib/libopencm3_stm32f4.a(usb.o)
 .debug_ranges  0x00000000000007d8      0x120 /mnt/c/users/isaacstalley/documents/github/libopencm3/lib/libopencm3_stm32f4.a(usb_standard.o)
 .debug_ranges  0x00000000000008f8       0xa8 /mnt/c/users/isaacstalley/documents/github/libopencm3/lib/libopencm3_stm32f4.a(usb_control.o)
 .debug_ranges  0x00000000000009a0       0x10 /mnt/c/users/isaacstalley/documents/github/libopencm3/lib/libopencm3_stm32f4.a(usb_f207.o)
 .debug_ranges  0x00000000000009b0       0x20 /mnt/c/users/isaacstalley/documents/github/libopencm3/lib/libopencm3_stm32f4.a(vector.o)
 .debug_ranges  0x00000000000009d0       0x80 /mnt/c/users/isaacstalley/documents/github/libopencm3/lib/libopencm3_stm32f4.a(systick.o)
 .debug_ranges  0x0000000000000a50       0x28 /mnt/c/users/isaacstalley/documents/github/libopencm3/lib/libopencm3_stm32f4.a(flash_common_all.o)
 .debug_ranges  0x0000000000000a78       0x38 /mnt/c/users/isaacstalley/documents/github/libopencm3/lib/libopencm3_stm32f4.a(flash_common_idcache.o)
 .debug_ranges  0x0000000000000ab0       0x10 /mnt/c/users/isaacstalley/documents/github/libopencm3/lib/libopencm3_stm32f4.a(pwr.o)
 .debug_ranges  0x0000000000000ac0       0x78 /mnt/c/users/isaacstalley/documents/github/libopencm3/lib/libopencm3_stm32f4.a(usb_dwc_common.o)
 .debug_ranges  0x0000000000000b38       0x40 /usr/lib/gcc/arm-none-eabi/10.3.1/../../../arm-none-eabi/lib/thumb/v7e-m+fp/hard/libc_nano.a(lib_a-nano-svfprintf.o)
 .debug_ranges  0x0000000000000b78       0xa0 /usr/lib/gcc/arm-none-eabi/10.3.1/../../../arm-none-eabi/lib/thumb/v7e-m+fp/hard/libc_nano.a(lib_a-nano-vfprintf_i.o)
 .debug_ranges  0x0000000000000c18       0x20 /usr/lib/gcc/arm-none-eabi/10.3.1/../../../arm-none-eabi/lib/thumb/v7e-m+fp/hard/libc_nano.a(lib_a-nano-freer.o)
 .debug_ranges  0x0000000000000c38       0x38 /usr/lib/gcc/arm-none-eabi/10.3.1/../../../arm-none-eabi/lib/thumb/v7e-m+fp/hard/libc_nano.a(lib_a-nano-mallocr.o)

.debug_line     0x0000000000000000     0x9f35
 .debug_line    0x0000000000000000      0x1d6 build/adc.o
 .debug_line    0x00000000000001d6      0x192 build/clock.o
 .debug_line    0x0000000000000368      0xbeb build/gfx.o
 .debug_line    0x0000000000000f53      0x315 build/lcd-spi.o
 .debug_line    0x0000000000001268      0x253 build/main.o
 .debug_line    0x00000000000014bb      0x1f9 build/sdram.o
 .debug_line    0x00000000000016b4      0x26a build/spi-mems.o
 .debug_line    0x000000000000191e      0x275 build/usb-com.o
 .debug_line    0x0000000000001b93      0x7ba /mnt/c/users/isaacstalley/documents/github/libopencm3/lib/libopencm3_stm32f4.a(adc_common_v1.o)
 .debug_line    0x000000000000234d      0x3de /mnt/c/users/isaacstalley/documents/github/libopencm3/lib/libopencm3_stm32f4.a(adc_common_v1_multi.o)
 .debug_line    0x000000000000272b      0x304 /mnt/c/users/isaacstalley/documents/github/libopencm3/lib/libopencm3_stm32f4.a(adc_common_f47.o)
 .debug_line    0x0000000000002a2f      0x277 /mnt/c/users/isaacstalley/documents/github/libopencm3/lib/libopencm3_stm32f4.a(fmc_common_f47.o)
 .debug_line    0x0000000000002ca6      0x2a6 /mnt/c/users/isaacstalley/documents/github/libopencm3/lib/libopencm3_stm32f4.a(gpio_common_all.o)
 .debug_line    0x0000000000002f4c      0x38e /mnt/c/users/isaacstalley/documents/github/libopencm3/lib/libopencm3_stm32f4.a(gpio_common_f0234.o)
 .debug_line    0x00000000000032da      0x305 /mnt/c/users/isaacstalley/documents/github/libopencm3/lib/libopencm3_stm32f4.a(rcc_common_all.o)
 .debug_line    0x00000000000035df      0x992 /mnt/c/users/isaacstalley/documents/github/libopencm3/lib/libopencm3_stm32f4.a(rcc.o)
 .debug_line    0x0000000000003f71      0x7df /mnt/c/users/isaacstalley/documents/github/libopencm3/lib/libopencm3_stm32f4.a(spi_common_all.o)
 .debug_line    0x0000000000004750      0x26c /mnt/c/users/isaacstalley/documents/github/libopencm3/lib/libopencm3_stm32f4.a(spi_common_v1.o)
 .debug_line    0x00000000000049bc      0x476 /mnt/c/users/isaacstalley/documents/github/libopencm3/lib/libopencm3_stm32f4.a(usb.o)
 .debug_line    0x0000000000004e32      0xbc8 /mnt/c/users/isaacstalley/documents/github/libopencm3/lib/libopencm3_stm32f4.a(usb_standard.o)
 .debug_line    0x00000000000059fa      0x656 /mnt/c/users/isaacstalley/documents/github/libopencm3/lib/libopencm3_stm32f4.a(usb_control.o)
 .debug_line    0x0000000000006050      0x412 /mnt/c/users/isaacstalley/documents/github/libopencm3/lib/libopencm3_stm32f4.a(usb_f207.o)
 .debug_line    0x0000000000006462      0x322 /mnt/c/users/isaacstalley/documents/github/libopencm3/lib/libopencm3_stm32f4.a(vector.o)
 .debug_line    0x0000000000006784      0x26e /mnt/c/users/isaacstalley/documents/github/libopencm3/lib/libopencm3_stm32f4.a(systick.o)
 .debug_line    0x00000000000069f2      0x246 /mnt/c/users/isaacstalley/documents/github/libopencm3/lib/libopencm3_stm32f4.a(flash_common_all.o)
 .debug_line    0x0000000000006c38      0x25f /mnt/c/users/isaacstalley/documents/github/libopencm3/lib/libopencm3_stm32f4.a(flash_common_idcache.o)
 .debug_line    0x0000000000006e97      0x18c /mnt/c/users/isaacstalley/documents/github/libopencm3/lib/libopencm3_stm32f4.a(pwr.o)
 .debug_line    0x0000000000007023      0x9e6 /mnt/c/users/isaacstalley/documents/github/libopencm3/lib/libopencm3_stm32f4.a(usb_dwc_common.o)
 .debug_line    0x0000000000007a09       0xbe /usr/lib/gcc/arm-none-eabi/10.3.1/../../../arm-none-eabi/lib/thumb/v7e-m+fp/hard/libc_nano.a(lib_a-memcpy.o)
 .debug_line    0x0000000000007ac7      0x209 /usr/lib/gcc/arm-none-eabi/10.3.1/../../../arm-none-eabi/lib/thumb/v7e-m+fp/hard/libc_nano.a(lib_a-sprintf.o)
 .debug_line    0x0000000000007cd0       0xaf /usr/lib/gcc/arm-none-eabi/10.3.1/../../../arm-none-eabi/lib/thumb/v7e-m+fp/hard/libc_nano.a(lib_a-strlen.o)
 .debug_line    0x0000000000007d7f       0xe4 /usr/lib/gcc/arm-none-eabi/10.3.1/../../../arm-none-eabi/lib/thumb/v7e-m+fp/hard/libc_nano.a(lib_a-impure.o)
 .debug_line    0x0000000000007e63      0x83a /usr/lib/gcc/arm-none-eabi/10.3.1/../../../arm-none-eabi/lib/thumb/v7e-m+fp/hard/libc_nano.a(lib_a-nano-svfprintf.o)
 .debug_line    0x000000000000869d      0x746 /usr/lib/gcc/arm-none-eabi/10.3.1/../../../arm-none-eabi/lib/thumb/v7e-m+fp/hard/libc_nano.a(lib_a-nano-vfprintf_i.o)
 .debug_line    0x0000000000008de3       0xa4 /usr/lib/gcc/arm-none-eabi/10.3.1/../../../arm-none-eabi/lib/thumb/v7e-m+fp/hard/libc_nano.a(lib_a-memchr.o)
 .debug_line    0x0000000000008e87      0x1ee /usr/lib/gcc/arm-none-eabi/10.3.1/../../../arm-none-eabi/lib/thumb/v7e-m+fp/hard/libc_nano.a(lib_a-memmove.o)
 .debug_line    0x0000000000009075      0x2ca /usr/lib/gcc/arm-none-eabi/10.3.1/../../../arm-none-eabi/lib/thumb/v7e-m+fp/hard/libc_nano.a(lib_a-nano-freer.o)
 .debug_line    0x000000000000933f      0x2d0 /usr/lib/gcc/arm-none-eabi/10.3.1/../../../arm-none-eabi/lib/thumb/v7e-m+fp/hard/libc_nano.a(lib_a-nano-mallocr.o)
 .debug_line    0x000000000000960f      0x1c5 /usr/lib/gcc/arm-none-eabi/10.3.1/../../../arm-none-eabi/lib/thumb/v7e-m+fp/hard/libc_nano.a(lib_a-nano-reallocr.o)
 .debug_line    0x00000000000097d4      0x183 /usr/lib/gcc/arm-none-eabi/10.3.1/../../../arm-none-eabi/lib/thumb/v7e-m+fp/hard/libc_nano.a(lib_a-sbrkr.o)
 .debug_line    0x0000000000009957      0x13e /usr/lib/gcc/arm-none-eabi/10.3.1/../../../arm-none-eabi/lib/thumb/v7e-m+fp/hard/libc_nano.a(lib_a-mlock.o)
 .debug_line    0x0000000000009a95      0x160 /usr/lib/gcc/arm-none-eabi/10.3.1/../../../arm-none-eabi/lib/thumb/v7e-m+fp/hard/libc_nano.a(lib_a-nano-msizer.o)
 .debug_line    0x0000000000009bf5      0x2c7 /usr/lib/gcc/arm-none-eabi/10.3.1/../../../arm-none-eabi/lib/thumb/v7e-m+fp/hard/libc_nano.a(lib_a-reent.o)
 .debug_line    0x0000000000009ebc       0x79 /usr/lib/gcc/arm-none-eabi/10.3.1/../../../arm-none-eabi/lib/thumb/v7e-m+fp/hard/libnosys.a(sbrk.o)

.debug_str      0x0000000000000000    0x1d1df
 .debug_str     0x0000000000000000      0x838 build/adc.o
                                        0x8de (size before relaxing)
 .debug_str     0x0000000000000838      0x1b3 build/clock.o
                                        0x3d6 (size before relaxing)
 .debug_str     0x00000000000009eb      0x27e build/gfx.o
                                        0x4ab (size before relaxing)
 .debug_str     0x0000000000000c69      0x110 build/lcd-spi.o
                                        0x990 (size before relaxing)
 .debug_str     0x0000000000000d79       0x89 build/main.o
                                        0x304 (size before relaxing)
 .debug_str     0x0000000000000e02      0x117 build/sdram.o
                                        0x9b3 (size before relaxing)
 .debug_str     0x0000000000000f19       0x27 build/spi-mems.o
                                        0x87d (size before relaxing)
 .debug_str     0x0000000000000f40      0x589 build/usb-com.o
                                        0xe74 (size before relaxing)
 .debug_str     0x00000000000014c9     0x7807 /mnt/c/users/isaacstalley/documents/github/libopencm3/lib/libopencm3_stm32f4.a(adc_common_v1.o)
                                       0x7a33 (size before relaxing)
 .debug_str     0x0000000000008cd0      0x1c5 /mnt/c/users/isaacstalley/documents/github/libopencm3/lib/libopencm3_stm32f4.a(adc_common_v1_multi.o)
                                       0x7732 (size before relaxing)
 .debug_str     0x0000000000008e95       0x71 /mnt/c/users/isaacstalley/documents/github/libopencm3/lib/libopencm3_stm32f4.a(adc_common_f47.o)
                                       0x75cf (size before relaxing)
 .debug_str     0x0000000000008f06     0x195c /mnt/c/users/isaacstalley/documents/github/libopencm3/lib/libopencm3_stm32f4.a(fmc_common_f47.o)
                                       0x67a0 (size before relaxing)
 .debug_str     0x000000000000a862     0x140b /mnt/c/users/isaacstalley/documents/github/libopencm3/lib/libopencm3_stm32f4.a(gpio_common_all.o)
                                       0x6189 (size before relaxing)
 .debug_str     0x000000000000bc6d       0x61 /mnt/c/users/isaacstalley/documents/github/libopencm3/lib/libopencm3_stm32f4.a(gpio_common_f0234.o)
                                       0x61a1 (size before relaxing)
 .debug_str     0x000000000000bcce     0x41be /mnt/c/users/isaacstalley/documents/github/libopencm3/lib/libopencm3_stm32f4.a(rcc_common_all.o)
                                       0x953e (size before relaxing)
 .debug_str     0x000000000000fe8c      0xb51 /mnt/c/users/isaacstalley/documents/github/libopencm3/lib/libopencm3_stm32f4.a(rcc.o)
                                       0x9db3 (size before relaxing)
 .debug_str     0x00000000000109dd     0x1206 /mnt/c/users/isaacstalley/documents/github/libopencm3/lib/libopencm3_stm32f4.a(spi_common_all.o)
                                       0x9cfc (size before relaxing)
 .debug_str     0x0000000000011be3       0x50 /mnt/c/users/isaacstalley/documents/github/libopencm3/lib/libopencm3_stm32f4.a(spi_common_v1.o)
                                       0x992e (size before relaxing)
 .debug_str     0x0000000000011c33     0x3817 /mnt/c/users/isaacstalley/documents/github/libopencm3/lib/libopencm3_stm32f4.a(usb.o)
                                       0x78a8 (size before relaxing)
 .debug_str     0x000000000001544a      0x2cb /mnt/c/users/isaacstalley/documents/github/libopencm3/lib/libopencm3_stm32f4.a(usb_standard.o)
                                       0x79f4 (size before relaxing)
 .debug_str     0x0000000000015715      0x184 /mnt/c/users/isaacstalley/documents/github/libopencm3/lib/libopencm3_stm32f4.a(usb_control.o)
                                       0x78c1 (size before relaxing)
 .debug_str     0x0000000000015899     0x39d2 /mnt/c/users/isaacstalley/documents/github/libopencm3/lib/libopencm3_stm32f4.a(usb_f207.o)
                                      0x106a3 (size before relaxing)
 .debug_str     0x000000000001926b     0x2d01 /mnt/c/users/isaacstalley/documents/github/libopencm3/lib/libopencm3_stm32f4.a(vector.o)
                                       0x6a49 (size before relaxing)
 .debug_str     0x000000000001bf6c      0x2eb /mnt/c/users/isaacstalley/documents/github/libopencm3/lib/libopencm3_stm32f4.a(systick.o)
                                       0x40a2 (size before relaxing)
 .debug_str     0x000000000001c257       0x64 /mnt/c/users/isaacstalley/documents/github/libopencm3/lib/libopencm3_stm32f4.a(flash_common_all.o)
                                       0x54eb (size before relaxing)
 .debug_str     0x000000000001c2bb       0x47 /mnt/c/users/isaacstalley/documents/github/libopencm3/lib/libopencm3_stm32f4.a(flash_common_idcache.o)
                                       0x550d (size before relaxing)
 .debug_str     0x000000000001c302        0x6 /mnt/c/users/isaacstalley/documents/github/libopencm3/lib/libopencm3_stm32f4.a(pwr.o)
                                       0x5167 (size before relaxing)
 .debug_str     0x000000000001c308      0x145 /mnt/c/users/isaacstalley/documents/github/libopencm3/lib/libopencm3_stm32f4.a(usb_dwc_common.o)
                                       0x9ecf (size before relaxing)
 .debug_str     0x000000000001c44d       0xb6 /usr/lib/gcc/arm-none-eabi/10.3.1/../../../arm-none-eabi/lib/thumb/v7e-m+fp/hard/libc_nano.a(lib_a-memcpy.o)
 .debug_str     0x000000000001c503      0x432 /usr/lib/gcc/arm-none-eabi/10.3.1/../../../arm-none-eabi/lib/thumb/v7e-m+fp/hard/libc_nano.a(lib_a-sprintf.o)
                                        0x54c (size before relaxing)
 .debug_str     0x000000000001c935       0x42 /usr/lib/gcc/arm-none-eabi/10.3.1/../../../arm-none-eabi/lib/thumb/v7e-m+fp/hard/libc_nano.a(lib_a-strlen.o)
                                         0xb5 (size before relaxing)
 .debug_str     0x000000000001c977       0xdf /usr/lib/gcc/arm-none-eabi/10.3.1/../../../arm-none-eabi/lib/thumb/v7e-m+fp/hard/libc_nano.a(lib_a-impure.o)
                                        0x55e (size before relaxing)
 .debug_str     0x000000000001ca56      0x28b /usr/lib/gcc/arm-none-eabi/10.3.1/../../../arm-none-eabi/lib/thumb/v7e-m+fp/hard/libc_nano.a(lib_a-nano-svfprintf.o)
                                        0x855 (size before relaxing)
 .debug_str     0x000000000001cce1       0x94 /usr/lib/gcc/arm-none-eabi/10.3.1/../../../arm-none-eabi/lib/thumb/v7e-m+fp/hard/libc_nano.a(lib_a-nano-vfprintf_i.o)
                                        0x7ec (size before relaxing)
 .debug_str     0x000000000001cd75       0x3c /usr/lib/gcc/arm-none-eabi/10.3.1/../../../arm-none-eabi/lib/thumb/v7e-m+fp/hard/libc_nano.a(lib_a-memchr.o)
                                         0xaf (size before relaxing)
 .debug_str     0x000000000001cdb1       0xc1 /usr/lib/gcc/arm-none-eabi/10.3.1/../../../arm-none-eabi/lib/thumb/v7e-m+fp/hard/libc_nano.a(lib_a-memmove.o)
                                        0x1df (size before relaxing)
 .debug_str     0x000000000001ce72      0x116 /usr/lib/gcc/arm-none-eabi/10.3.1/../../../arm-none-eabi/lib/thumb/v7e-m+fp/hard/libc_nano.a(lib_a-nano-freer.o)
                                        0x595 (size before relaxing)
 .debug_str     0x000000000001cf88       0x46 /usr/lib/gcc/arm-none-eabi/10.3.1/../../../arm-none-eabi/lib/thumb/v7e-m+fp/hard/libc_nano.a(lib_a-nano-mallocr.o)
                                        0x5c0 (size before relaxing)
 .debug_str     0x000000000001cfce       0x23 /usr/lib/gcc/arm-none-eabi/10.3.1/../../../arm-none-eabi/lib/thumb/v7e-m+fp/hard/libc_nano.a(lib_a-nano-reallocr.o)
                                        0x57f (size before relaxing)
 .debug_str     0x000000000001cff1       0x3d /usr/lib/gcc/arm-none-eabi/10.3.1/../../../arm-none-eabi/lib/thumb/v7e-m+fp/hard/libc_nano.a(lib_a-sbrkr.o)
                                        0x516 (size before relaxing)
 .debug_str     0x000000000001d02e       0x4c /usr/lib/gcc/arm-none-eabi/10.3.1/../../../arm-none-eabi/lib/thumb/v7e-m+fp/hard/libc_nano.a(lib_a-mlock.o)
                                        0x52c (size before relaxing)
 .debug_str     0x000000000001d07a        0xf /usr/lib/gcc/arm-none-eabi/10.3.1/../../../arm-none-eabi/lib/thumb/v7e-m+fp/hard/libc_nano.a(lib_a-nano-msizer.o)
                                        0x55d (size before relaxing)
 .debug_str     0x000000000001d089       0x5e /usr/lib/gcc/arm-none-eabi/10.3.1/../../../arm-none-eabi/lib/thumb/v7e-m+fp/hard/libc_nano.a(lib_a-reent.o)
                                        0x53e (size before relaxing)
 .debug_str     0x000000000001d0e7       0xf8 /usr/lib/gcc/arm-none-eabi/10.3.1/../../../arm-none-eabi/lib/thumb/v7e-m+fp/hard/libnosys.a(sbrk.o)
                                        0x111 (size before relaxing)

.comment        0x0000000000000000       0x33
 .comment       0x0000000000000000       0x33 build/adc.o
                                         0x34 (size before relaxing)
 .comment       0x0000000000000033       0x34 build/clock.o
 .comment       0x0000000000000033       0x34 build/gfx.o
 .comment       0x0000000000000033       0x34 build/lcd-spi.o
 .comment       0x0000000000000033       0x34 build/main.o
 .comment       0x0000000000000033       0x34 build/sdram.o
 .comment       0x0000000000000033       0x34 build/spi-mems.o
 .comment       0x0000000000000033       0x34 build/usb-com.o
 .comment       0x0000000000000033       0x34 /mnt/c/users/isaacstalley/documents/github/libopencm3/lib/libopencm3_stm32f4.a(adc_common_v1.o)
 .comment       0x0000000000000033       0x34 /mnt/c/users/isaacstalley/documents/github/libopencm3/lib/libopencm3_stm32f4.a(adc_common_v1_multi.o)
 .comment       0x0000000000000033       0x34 /mnt/c/users/isaacstalley/documents/github/libopencm3/lib/libopencm3_stm32f4.a(adc_common_f47.o)
 .comment       0x0000000000000033       0x34 /mnt/c/users/isaacstalley/documents/github/libopencm3/lib/libopencm3_stm32f4.a(fmc_common_f47.o)
 .comment       0x0000000000000033       0x34 /mnt/c/users/isaacstalley/documents/github/libopencm3/lib/libopencm3_stm32f4.a(gpio_common_all.o)
 .comment       0x0000000000000033       0x34 /mnt/c/users/isaacstalley/documents/github/libopencm3/lib/libopencm3_stm32f4.a(gpio_common_f0234.o)
 .comment       0x0000000000000033       0x34 /mnt/c/users/isaacstalley/documents/github/libopencm3/lib/libopencm3_stm32f4.a(rcc_common_all.o)
 .comment       0x0000000000000033       0x34 /mnt/c/users/isaacstalley/documents/github/libopencm3/lib/libopencm3_stm32f4.a(rcc.o)
 .comment       0x0000000000000033       0x34 /mnt/c/users/isaacstalley/documents/github/libopencm3/lib/libopencm3_stm32f4.a(spi_common_all.o)
 .comment       0x0000000000000033       0x34 /mnt/c/users/isaacstalley/documents/github/libopencm3/lib/libopencm3_stm32f4.a(spi_common_v1.o)
 .comment       0x0000000000000033       0x34 /mnt/c/users/isaacstalley/documents/github/libopencm3/lib/libopencm3_stm32f4.a(usb.o)
 .comment       0x0000000000000033       0x34 /mnt/c/users/isaacstalley/documents/github/libopencm3/lib/libopencm3_stm32f4.a(usb_standard.o)
 .comment       0x0000000000000033       0x34 /mnt/c/users/isaacstalley/documents/github/libopencm3/lib/libopencm3_stm32f4.a(usb_control.o)
 .comment       0x0000000000000033       0x34 /mnt/c/users/isaacstalley/documents/github/libopencm3/lib/libopencm3_stm32f4.a(usb_f207.o)
 .comment       0x0000000000000033       0x34 /mnt/c/users/isaacstalley/documents/github/libopencm3/lib/libopencm3_stm32f4.a(vector.o)
 .comment       0x0000000000000033       0x34 /mnt/c/users/isaacstalley/documents/github/libopencm3/lib/libopencm3_stm32f4.a(systick.o)
 .comment       0x0000000000000033       0x34 /mnt/c/users/isaacstalley/documents/github/libopencm3/lib/libopencm3_stm32f4.a(flash_common_all.o)
 .comment       0x0000000000000033       0x34 /mnt/c/users/isaacstalley/documents/github/libopencm3/lib/libopencm3_stm32f4.a(flash_common_idcache.o)
 .comment       0x0000000000000033       0x34 /mnt/c/users/isaacstalley/documents/github/libopencm3/lib/libopencm3_stm32f4.a(pwr.o)
 .comment       0x0000000000000033       0x34 /mnt/c/users/isaacstalley/documents/github/libopencm3/lib/libopencm3_stm32f4.a(usb_dwc_common.o)
 .comment       0x0000000000000033       0x34 /usr/lib/gcc/arm-none-eabi/10.3.1/../../../arm-none-eabi/lib/thumb/v7e-m+fp/hard/libc_nano.a(lib_a-sprintf.o)
 .comment       0x0000000000000033       0x34 /usr/lib/gcc/arm-none-eabi/10.3.1/../../../arm-none-eabi/lib/thumb/v7e-m+fp/hard/libc_nano.a(lib_a-impure.o)
 .comment       0x0000000000000033       0x34 /usr/lib/gcc/arm-none-eabi/10.3.1/../../../arm-none-eabi/lib/thumb/v7e-m+fp/hard/libc_nano.a(lib_a-nano-svfprintf.o)
 .comment       0x0000000000000033       0x34 /usr/lib/gcc/arm-none-eabi/10.3.1/../../../arm-none-eabi/lib/thumb/v7e-m+fp/hard/libc_nano.a(lib_a-nano-vfprintf_i.o)
 .comment       0x0000000000000033       0x34 /usr/lib/gcc/arm-none-eabi/10.3.1/../../../arm-none-eabi/lib/thumb/v7e-m+fp/hard/libc_nano.a(lib_a-memmove.o)
 .comment       0x0000000000000033       0x34 /usr/lib/gcc/arm-none-eabi/10.3.1/../../../arm-none-eabi/lib/thumb/v7e-m+fp/hard/libc_nano.a(lib_a-nano-freer.o)
 .comment       0x0000000000000033       0x34 /usr/lib/gcc/arm-none-eabi/10.3.1/../../../arm-none-eabi/lib/thumb/v7e-m+fp/hard/libc_nano.a(lib_a-nano-mallocr.o)
 .comment       0x0000000000000033       0x34 /usr/lib/gcc/arm-none-eabi/10.3.1/../../../arm-none-eabi/lib/thumb/v7e-m+fp/hard/libc_nano.a(lib_a-nano-reallocr.o)
 .comment       0x0000000000000033       0x34 /usr/lib/gcc/arm-none-eabi/10.3.1/../../../arm-none-eabi/lib/thumb/v7e-m+fp/hard/libc_nano.a(lib_a-sbrkr.o)
 .comment       0x0000000000000033       0x34 /usr/lib/gcc/arm-none-eabi/10.3.1/../../../arm-none-eabi/lib/thumb/v7e-m+fp/hard/libc_nano.a(lib_a-mlock.o)
 .comment       0x0000000000000033       0x34 /usr/lib/gcc/arm-none-eabi/10.3.1/../../../arm-none-eabi/lib/thumb/v7e-m+fp/hard/libc_nano.a(lib_a-nano-msizer.o)
 .comment       0x0000000000000033       0x34 /usr/lib/gcc/arm-none-eabi/10.3.1/../../../arm-none-eabi/lib/thumb/v7e-m+fp/hard/libc_nano.a(lib_a-reent.o)
 .comment       0x0000000000000033       0x34 /usr/lib/gcc/arm-none-eabi/10.3.1/../../../arm-none-eabi/lib/thumb/v7e-m+fp/hard/libnosys.a(sbrk.o)

.ARM.attributes
                0x0000000000000000       0x32
 .ARM.attributes
                0x0000000000000000       0x34 build/adc.o
 .ARM.attributes
                0x0000000000000034       0x34 build/clock.o
 .ARM.attributes
                0x0000000000000068       0x34 build/gfx.o
 .ARM.attributes
                0x000000000000009c       0x34 build/lcd-spi.o
 .ARM.attributes
                0x00000000000000d0       0x34 build/main.o
 .ARM.attributes
                0x0000000000000104       0x34 build/sdram.o
 .ARM.attributes
                0x0000000000000138       0x34 build/spi-mems.o
 .ARM.attributes
                0x000000000000016c       0x34 build/usb-com.o
 .ARM.attributes
                0x00000000000001a0       0x34 /mnt/c/users/isaacstalley/documents/github/libopencm3/lib/libopencm3_stm32f4.a(adc_common_v1.o)
 .ARM.attributes
                0x00000000000001d4       0x34 /mnt/c/users/isaacstalley/documents/github/libopencm3/lib/libopencm3_stm32f4.a(adc_common_v1_multi.o)
 .ARM.attributes
                0x0000000000000208       0x34 /mnt/c/users/isaacstalley/documents/github/libopencm3/lib/libopencm3_stm32f4.a(adc_common_f47.o)
 .ARM.attributes
                0x000000000000023c       0x34 /mnt/c/users/isaacstalley/documents/github/libopencm3/lib/libopencm3_stm32f4.a(fmc_common_f47.o)
 .ARM.attributes
                0x0000000000000270       0x34 /mnt/c/users/isaacstalley/documents/github/libopencm3/lib/libopencm3_stm32f4.a(gpio_common_all.o)
 .ARM.attributes
                0x00000000000002a4       0x34 /mnt/c/users/isaacstalley/documents/github/libopencm3/lib/libopencm3_stm32f4.a(gpio_common_f0234.o)
 .ARM.attributes
                0x00000000000002d8       0x34 /mnt/c/users/isaacstalley/documents/github/libopencm3/lib/libopencm3_stm32f4.a(rcc_common_all.o)
 .ARM.attributes
                0x000000000000030c       0x34 /mnt/c/users/isaacstalley/documents/github/libopencm3/lib/libopencm3_stm32f4.a(rcc.o)
 .ARM.attributes
                0x0000000000000340       0x34 /mnt/c/users/isaacstalley/documents/github/libopencm3/lib/libopencm3_stm32f4.a(spi_common_all.o)
 .ARM.attributes
                0x0000000000000374       0x34 /mnt/c/users/isaacstalley/documents/github/libopencm3/lib/libopencm3_stm32f4.a(spi_common_v1.o)
 .ARM.attributes
                0x00000000000003a8       0x34 /mnt/c/users/isaacstalley/documents/github/libopencm3/lib/libopencm3_stm32f4.a(usb.o)
 .ARM.attributes
                0x00000000000003dc       0x34 /mnt/c/users/isaacstalley/documents/github/libopencm3/lib/libopencm3_stm32f4.a(usb_standard.o)
 .ARM.attributes
                0x0000000000000410       0x34 /mnt/c/users/isaacstalley/documents/github/libopencm3/lib/libopencm3_stm32f4.a(usb_control.o)
 .ARM.attributes
                0x0000000000000444       0x34 /mnt/c/users/isaacstalley/documents/github/libopencm3/lib/libopencm3_stm32f4.a(usb_f207.o)
 .ARM.attributes
                0x0000000000000478       0x34 /mnt/c/users/isaacstalley/documents/github/libopencm3/lib/libopencm3_stm32f4.a(vector.o)
 .ARM.attributes
                0x00000000000004ac       0x34 /mnt/c/users/isaacstalley/documents/github/libopencm3/lib/libopencm3_stm32f4.a(systick.o)
 .ARM.attributes
                0x00000000000004e0       0x34 /mnt/c/users/isaacstalley/documents/github/libopencm3/lib/libopencm3_stm32f4.a(flash_common_all.o)
 .ARM.attributes
                0x0000000000000514       0x34 /mnt/c/users/isaacstalley/documents/github/libopencm3/lib/libopencm3_stm32f4.a(flash_common_idcache.o)
 .ARM.attributes
                0x0000000000000548       0x34 /mnt/c/users/isaacstalley/documents/github/libopencm3/lib/libopencm3_stm32f4.a(pwr.o)
 .ARM.attributes
                0x000000000000057c       0x34 /mnt/c/users/isaacstalley/documents/github/libopencm3/lib/libopencm3_stm32f4.a(usb_dwc_common.o)
 .ARM.attributes
                0x00000000000005b0       0x1c /usr/lib/gcc/arm-none-eabi/10.3.1/../../../arm-none-eabi/lib/thumb/v7e-m+fp/hard/libc_nano.a(lib_a-memcpy.o)
 .ARM.attributes
                0x00000000000005cc       0x34 /usr/lib/gcc/arm-none-eabi/10.3.1/../../../arm-none-eabi/lib/thumb/v7e-m+fp/hard/libc_nano.a(lib_a-sprintf.o)
 .ARM.attributes
                0x0000000000000600       0x1c /usr/lib/gcc/arm-none-eabi/10.3.1/../../../arm-none-eabi/lib/thumb/v7e-m+fp/hard/libc_nano.a(lib_a-strlen.o)
 .ARM.attributes
                0x000000000000061c       0x32 /usr/lib/gcc/arm-none-eabi/10.3.1/../../../arm-none-eabi/lib/thumb/v7e-m+fp/hard/libc_nano.a(lib_a-impure.o)
 .ARM.attributes
                0x000000000000064e       0x34 /usr/lib/gcc/arm-none-eabi/10.3.1/../../../arm-none-eabi/lib/thumb/v7e-m+fp/hard/libc_nano.a(lib_a-nano-svfprintf.o)
 .ARM.attributes
                0x0000000000000682       0x34 /usr/lib/gcc/arm-none-eabi/10.3.1/../../../arm-none-eabi/lib/thumb/v7e-m+fp/hard/libc_nano.a(lib_a-nano-vfprintf_i.o)
 .ARM.attributes
                0x00000000000006b6       0x1c /usr/lib/gcc/arm-none-eabi/10.3.1/../../../arm-none-eabi/lib/thumb/v7e-m+fp/hard/libc_nano.a(lib_a-memchr.o)
 .ARM.attributes
                0x00000000000006d2       0x34 /usr/lib/gcc/arm-none-eabi/10.3.1/../../../arm-none-eabi/lib/thumb/v7e-m+fp/hard/libc_nano.a(lib_a-memmove.o)
 .ARM.attributes
                0x0000000000000706       0x34 /usr/lib/gcc/arm-none-eabi/10.3.1/../../../arm-none-eabi/lib/thumb/v7e-m+fp/hard/libc_nano.a(lib_a-nano-freer.o)
 .ARM.attributes
                0x000000000000073a       0x34 /usr/lib/gcc/arm-none-eabi/10.3.1/../../../arm-none-eabi/lib/thumb/v7e-m+fp/hard/libc_nano.a(lib_a-nano-mallocr.o)
 .ARM.attributes
                0x000000000000076e       0x34 /usr/lib/gcc/arm-none-eabi/10.3.1/../../../arm-none-eabi/lib/thumb/v7e-m+fp/hard/libc_nano.a(lib_a-nano-reallocr.o)
 .ARM.attributes
                0x00000000000007a2       0x34 /usr/lib/gcc/arm-none-eabi/10.3.1/../../../arm-none-eabi/lib/thumb/v7e-m+fp/hard/libc_nano.a(lib_a-sbrkr.o)
 .ARM.attributes
                0x00000000000007d6       0x34 /usr/lib/gcc/arm-none-eabi/10.3.1/../../../arm-none-eabi/lib/thumb/v7e-m+fp/hard/libc_nano.a(lib_a-mlock.o)
 .ARM.attributes
                0x000000000000080a       0x34 /usr/lib/gcc/arm-none-eabi/10.3.1/../../../arm-none-eabi/lib/thumb/v7e-m+fp/hard/libc_nano.a(lib_a-nano-msizer.o)
 .ARM.attributes
                0x000000000000083e       0x34 /usr/lib/gcc/arm-none-eabi/10.3.1/../../../arm-none-eabi/lib/thumb/v7e-m+fp/hard/libc_nano.a(lib_a-reent.o)
 .ARM.attributes
                0x0000000000000872       0x34 /usr/lib/gcc/arm-none-eabi/10.3.1/../../../arm-none-eabi/lib/thumb/v7e-m+fp/hard/libnosys.a(sbrk.o)

.debug_frame    0x0000000000000000     0x1cd0
 .debug_frame   0x0000000000000000       0x48 build/adc.o
 .debug_frame   0x0000000000000048       0x48 build/clock.o
 .debug_frame   0x0000000000000090      0x36c build/gfx.o
 .debug_frame   0x00000000000003fc       0xa0 build/lcd-spi.o
 .debug_frame   0x000000000000049c       0x2c build/main.o
 .debug_frame   0x00000000000004c8       0x2c build/sdram.o
 .debug_frame   0x00000000000004f4       0x6c build/spi-mems.o
 .debug_frame   0x0000000000000560       0x80 build/usb-com.o
 .debug_frame   0x00000000000005e0      0x2b4 /mnt/c/users/isaacstalley/documents/github/libopencm3/lib/libopencm3_stm32f4.a(adc_common_v1.o)
 .debug_frame   0x0000000000000894      0x130 /mnt/c/users/isaacstalley/documents/github/libopencm3/lib/libopencm3_stm32f4.a(adc_common_v1_multi.o)
 .debug_frame   0x00000000000009c4       0x70 /mnt/c/users/isaacstalley/documents/github/libopencm3/lib/libopencm3_stm32f4.a(adc_common_f47.o)
 .debug_frame   0x0000000000000a34       0x38 /mnt/c/users/isaacstalley/documents/github/libopencm3/lib/libopencm3_stm32f4.a(fmc_common_f47.o)
 .debug_frame   0x0000000000000a6c       0x80 /mnt/c/users/isaacstalley/documents/github/libopencm3/lib/libopencm3_stm32f4.a(gpio_common_all.o)
 .debug_frame   0x0000000000000aec       0x70 /mnt/c/users/isaacstalley/documents/github/libopencm3/lib/libopencm3_stm32f4.a(gpio_common_f0234.o)
 .debug_frame   0x0000000000000b5c       0xe0 /mnt/c/users/isaacstalley/documents/github/libopencm3/lib/libopencm3_stm32f4.a(rcc_common_all.o)
 .debug_frame   0x0000000000000c3c      0x234 /mnt/c/users/isaacstalley/documents/github/libopencm3/lib/libopencm3_stm32f4.a(rcc.o)
 .debug_frame   0x0000000000000e70      0x2c0 /mnt/c/users/isaacstalley/documents/github/libopencm3/lib/libopencm3_stm32f4.a(spi_common_all.o)
 .debug_frame   0x0000000000001130       0x4c /mnt/c/users/isaacstalley/documents/github/libopencm3/lib/libopencm3_stm32f4.a(spi_common_v1.o)
 .debug_frame   0x000000000000117c      0x14c /mnt/c/users/isaacstalley/documents/github/libopencm3/lib/libopencm3_stm32f4.a(usb.o)
 .debug_frame   0x00000000000012c8      0x1e4 /mnt/c/users/isaacstalley/documents/github/libopencm3/lib/libopencm3_stm32f4.a(usb_standard.o)
 .debug_frame   0x00000000000014ac      0x15c /mnt/c/users/isaacstalley/documents/github/libopencm3/lib/libopencm3_stm32f4.a(usb_control.o)
 .debug_frame   0x0000000000001608       0x28 /mnt/c/users/isaacstalley/documents/github/libopencm3/lib/libopencm3_stm32f4.a(usb_f207.o)
 .debug_frame   0x0000000000001630       0x4c /mnt/c/users/isaacstalley/documents/github/libopencm3/lib/libopencm3_stm32f4.a(vector.o)
 .debug_frame   0x000000000000167c       0xd8 /mnt/c/users/isaacstalley/documents/github/libopencm3/lib/libopencm3_stm32f4.a(systick.o)
 .debug_frame   0x0000000000001754       0x50 /mnt/c/users/isaacstalley/documents/github/libopencm3/lib/libopencm3_stm32f4.a(flash_common_all.o)
 .debug_frame   0x00000000000017a4       0x70 /mnt/c/users/isaacstalley/documents/github/libopencm3/lib/libopencm3_stm32f4.a(flash_common_idcache.o)
 .debug_frame   0x0000000000001814       0x20 /mnt/c/users/isaacstalley/documents/github/libopencm3/lib/libopencm3_stm32f4.a(pwr.o)
 .debug_frame   0x0000000000001834      0x11c /mnt/c/users/isaacstalley/documents/github/libopencm3/lib/libopencm3_stm32f4.a(usb_dwc_common.o)
 .debug_frame   0x0000000000001950       0x74 /usr/lib/gcc/arm-none-eabi/10.3.1/../../../arm-none-eabi/lib/thumb/v7e-m+fp/hard/libc_nano.a(lib_a-sprintf.o)
 .debug_frame   0x00000000000019c4       0x98 /usr/lib/gcc/arm-none-eabi/10.3.1/../../../arm-none-eabi/lib/thumb/v7e-m+fp/hard/libc_nano.a(lib_a-nano-svfprintf.o)
 .debug_frame   0x0000000000001a5c       0x6c /usr/lib/gcc/arm-none-eabi/10.3.1/../../../arm-none-eabi/lib/thumb/v7e-m+fp/hard/libc_nano.a(lib_a-nano-vfprintf_i.o)
 .debug_frame   0x0000000000001ac8       0x40 /usr/lib/gcc/arm-none-eabi/10.3.1/../../../arm-none-eabi/lib/thumb/v7e-m+fp/hard/libc_nano.a(lib_a-memmove.o)
 .debug_frame   0x0000000000001b08       0x54 /usr/lib/gcc/arm-none-eabi/10.3.1/../../../arm-none-eabi/lib/thumb/v7e-m+fp/hard/libc_nano.a(lib_a-nano-freer.o)
 .debug_frame   0x0000000000001b5c       0x30 /usr/lib/gcc/arm-none-eabi/10.3.1/../../../arm-none-eabi/lib/thumb/v7e-m+fp/hard/libc_nano.a(lib_a-nano-mallocr.o)
 .debug_frame   0x0000000000001b8c       0x38 /usr/lib/gcc/arm-none-eabi/10.3.1/../../../arm-none-eabi/lib/thumb/v7e-m+fp/hard/libc_nano.a(lib_a-nano-reallocr.o)
 .debug_frame   0x0000000000001bc4       0x2c /usr/lib/gcc/arm-none-eabi/10.3.1/../../../arm-none-eabi/lib/thumb/v7e-m+fp/hard/libc_nano.a(lib_a-sbrkr.o)
 .debug_frame   0x0000000000001bf0       0x30 /usr/lib/gcc/arm-none-eabi/10.3.1/../../../arm-none-eabi/lib/thumb/v7e-m+fp/hard/libc_nano.a(lib_a-mlock.o)
 .debug_frame   0x0000000000001c20       0x20 /usr/lib/gcc/arm-none-eabi/10.3.1/../../../arm-none-eabi/lib/thumb/v7e-m+fp/hard/libc_nano.a(lib_a-nano-msizer.o)
 .debug_frame   0x0000000000001c40       0x70 /usr/lib/gcc/arm-none-eabi/10.3.1/../../../arm-none-eabi/lib/thumb/v7e-m+fp/hard/libc_nano.a(lib_a-reent.o)
 .debug_frame   0x0000000000001cb0       0x20 /usr/lib/gcc/arm-none-eabi/10.3.1/../../../arm-none-eabi/lib/thumb/v7e-m+fp/hard/libnosys.a(sbrk.o)

.debug_macro    0x0000000000000000     0x66cc
 .debug_macro   0x0000000000000000       0x7e /mnt/c/users/isaacstalley/documents/github/libopencm3/lib/libopencm3_stm32f4.a(adc_common_v1.o)
 .debug_macro   0x000000000000007e      0xa6c /mnt/c/users/isaacstalley/documents/github/libopencm3/lib/libopencm3_stm32f4.a(adc_common_v1.o)
 .debug_macro   0x0000000000000aea       0x1c /mnt/c/users/isaacstalley/documents/github/libopencm3/lib/libopencm3_stm32f4.a(adc_common_v1.o)
 .debug_macro   0x0000000000000b06      0x34e /mnt/c/users/isaacstalley/documents/github/libopencm3/lib/libopencm3_stm32f4.a(adc_common_v1.o)
 .debug_macro   0x0000000000000e54       0x22 /mnt/c/users/isaacstalley/documents/github/libopencm3/lib/libopencm3_stm32f4.a(adc_common_v1.o)
 .debug_macro   0x0000000000000e76       0xe8 /mnt/c/users/isaacstalley/documents/github/libopencm3/lib/libopencm3_stm32f4.a(adc_common_v1.o)
 .debug_macro   0x0000000000000f5e       0x76 /mnt/c/users/isaacstalley/documents/github/libopencm3/lib/libopencm3_stm32f4.a(adc_common_v1.o)
 .debug_macro   0x0000000000000fd4      0x280 /mnt/c/users/isaacstalley/documents/github/libopencm3/lib/libopencm3_stm32f4.a(adc_common_v1.o)
 .debug_macro   0x0000000000001254      0x449 /mnt/c/users/isaacstalley/documents/github/libopencm3/lib/libopencm3_stm32f4.a(adc_common_v1.o)
 .debug_macro   0x000000000000169d      0x2d5 /mnt/c/users/isaacstalley/documents/github/libopencm3/lib/libopencm3_stm32f4.a(adc_common_v1.o)
 .debug_macro   0x0000000000001972      0x1be /mnt/c/users/isaacstalley/documents/github/libopencm3/lib/libopencm3_stm32f4.a(adc_common_v1.o)
 .debug_macro   0x0000000000001b30       0x7e /mnt/c/users/isaacstalley/documents/github/libopencm3/lib/libopencm3_stm32f4.a(adc_common_v1_multi.o)
 .debug_macro   0x0000000000001bae       0x7e /mnt/c/users/isaacstalley/documents/github/libopencm3/lib/libopencm3_stm32f4.a(adc_common_f47.o)
 .debug_macro   0x0000000000001c2c       0x75 /mnt/c/users/isaacstalley/documents/github/libopencm3/lib/libopencm3_stm32f4.a(fmc_common_f47.o)
 .debug_macro   0x0000000000001ca1      0x285 /mnt/c/users/isaacstalley/documents/github/libopencm3/lib/libopencm3_stm32f4.a(fmc_common_f47.o)
 .debug_macro   0x0000000000001f26      0x2b3 /mnt/c/users/isaacstalley/documents/github/libopencm3/lib/libopencm3_stm32f4.a(fmc_common_f47.o)
 .debug_macro   0x00000000000021d9       0x88 /mnt/c/users/isaacstalley/documents/github/libopencm3/lib/libopencm3_stm32f4.a(gpio_common_all.o)
 .debug_macro   0x0000000000002261       0x76 /mnt/c/users/isaacstalley/documents/github/libopencm3/lib/libopencm3_stm32f4.a(gpio_common_all.o)
 .debug_macro   0x00000000000022d7      0x37e /mnt/c/users/isaacstalley/documents/github/libopencm3/lib/libopencm3_stm32f4.a(gpio_common_all.o)
 .debug_macro   0x0000000000002655       0xca /mnt/c/users/isaacstalley/documents/github/libopencm3/lib/libopencm3_stm32f4.a(gpio_common_all.o)
 .debug_macro   0x000000000000271f       0x88 /mnt/c/users/isaacstalley/documents/github/libopencm3/lib/libopencm3_stm32f4.a(gpio_common_f0234.o)
 .debug_macro   0x00000000000027a7       0xa7 /mnt/c/users/isaacstalley/documents/github/libopencm3/lib/libopencm3_stm32f4.a(rcc_common_all.o)
 .debug_macro   0x000000000000284e       0x8e /mnt/c/users/isaacstalley/documents/github/libopencm3/lib/libopencm3_stm32f4.a(rcc_common_all.o)
 .debug_macro   0x00000000000028dc       0x46 /mnt/c/users/isaacstalley/documents/github/libopencm3/lib/libopencm3_stm32f4.a(rcc_common_all.o)
 .debug_macro   0x0000000000002922      0xcea /mnt/c/users/isaacstalley/documents/github/libopencm3/lib/libopencm3_stm32f4.a(rcc_common_all.o)
 .debug_macro   0x000000000000360c       0xdb /mnt/c/users/isaacstalley/documents/github/libopencm3/lib/libopencm3_stm32f4.a(rcc.o)
 .debug_macro   0x00000000000036e7       0x16 /mnt/c/users/isaacstalley/documents/github/libopencm3/lib/libopencm3_stm32f4.a(rcc.o)
 .debug_macro   0x00000000000036fd       0x1c /mnt/c/users/isaacstalley/documents/github/libopencm3/lib/libopencm3_stm32f4.a(rcc.o)
 .debug_macro   0x0000000000003719      0x143 /mnt/c/users/isaacstalley/documents/github/libopencm3/lib/libopencm3_stm32f4.a(rcc.o)
 .debug_macro   0x000000000000385c       0x10 /mnt/c/users/isaacstalley/documents/github/libopencm3/lib/libopencm3_stm32f4.a(rcc.o)
 .debug_macro   0x000000000000386c       0xb6 /mnt/c/users/isaacstalley/documents/github/libopencm3/lib/libopencm3_stm32f4.a(spi_common_all.o)
 .debug_macro   0x0000000000003922      0x2eb /mnt/c/users/isaacstalley/documents/github/libopencm3/lib/libopencm3_stm32f4.a(spi_common_all.o)
 .debug_macro   0x0000000000003c0d       0x16 /mnt/c/users/isaacstalley/documents/github/libopencm3/lib/libopencm3_stm32f4.a(spi_common_all.o)
 .debug_macro   0x0000000000003c23       0x22 /mnt/c/users/isaacstalley/documents/github/libopencm3/lib/libopencm3_stm32f4.a(spi_common_all.o)
 .debug_macro   0x0000000000003c45       0xb6 /mnt/c/users/isaacstalley/documents/github/libopencm3/lib/libopencm3_stm32f4.a(spi_common_v1.o)
 .debug_macro   0x0000000000003cfb      0x124 /mnt/c/users/isaacstalley/documents/github/libopencm3/lib/libopencm3_stm32f4.a(usb.o)
 .debug_macro   0x0000000000003e1f       0x22 /mnt/c/users/isaacstalley/documents/github/libopencm3/lib/libopencm3_stm32f4.a(usb.o)
 .debug_macro   0x0000000000003e41       0x52 /mnt/c/users/isaacstalley/documents/github/libopencm3/lib/libopencm3_stm32f4.a(usb.o)
 .debug_macro   0x0000000000003e93       0x18 /mnt/c/users/isaacstalley/documents/github/libopencm3/lib/libopencm3_stm32f4.a(usb.o)
 .debug_macro   0x0000000000003eab       0x5c /mnt/c/users/isaacstalley/documents/github/libopencm3/lib/libopencm3_stm32f4.a(usb.o)
 .debug_macro   0x0000000000003f07       0x35 /mnt/c/users/isaacstalley/documents/github/libopencm3/lib/libopencm3_stm32f4.a(usb.o)
 .debug_macro   0x0000000000003f3c       0x34 /mnt/c/users/isaacstalley/documents/github/libopencm3/lib/libopencm3_stm32f4.a(usb.o)
 .debug_macro   0x0000000000003f70      0x16d /mnt/c/users/isaacstalley/documents/github/libopencm3/lib/libopencm3_stm32f4.a(usb.o)
 .debug_macro   0x00000000000040dd       0x16 /mnt/c/users/isaacstalley/documents/github/libopencm3/lib/libopencm3_stm32f4.a(usb.o)
 .debug_macro   0x00000000000040f3       0x43 /mnt/c/users/isaacstalley/documents/github/libopencm3/lib/libopencm3_stm32f4.a(usb.o)
 .debug_macro   0x0000000000004136       0x57 /mnt/c/users/isaacstalley/documents/github/libopencm3/lib/libopencm3_stm32f4.a(usb.o)
 .debug_macro   0x000000000000418d       0x34 /mnt/c/users/isaacstalley/documents/github/libopencm3/lib/libopencm3_stm32f4.a(usb.o)
 .debug_macro   0x00000000000041c1       0x10 /mnt/c/users/isaacstalley/documents/github/libopencm3/lib/libopencm3_stm32f4.a(usb.o)
 .debug_macro   0x00000000000041d1       0x52 /mnt/c/users/isaacstalley/documents/github/libopencm3/lib/libopencm3_stm32f4.a(usb.o)
 .debug_macro   0x0000000000004223      0x182 /mnt/c/users/isaacstalley/documents/github/libopencm3/lib/libopencm3_stm32f4.a(usb.o)
 .debug_macro   0x00000000000043a5      0x356 /mnt/c/users/isaacstalley/documents/github/libopencm3/lib/libopencm3_stm32f4.a(usb.o)
 .debug_macro   0x00000000000046fb       0x10 /mnt/c/users/isaacstalley/documents/github/libopencm3/lib/libopencm3_stm32f4.a(usb.o)
 .debug_macro   0x000000000000470b       0x35 /mnt/c/users/isaacstalley/documents/github/libopencm3/lib/libopencm3_stm32f4.a(usb.o)
 .debug_macro   0x0000000000004740      0x19c /mnt/c/users/isaacstalley/documents/github/libopencm3/lib/libopencm3_stm32f4.a(usb.o)
 .debug_macro   0x00000000000048dc       0x10 /mnt/c/users/isaacstalley/documents/github/libopencm3/lib/libopencm3_stm32f4.a(usb.o)
 .debug_macro   0x00000000000048ec       0x1c /mnt/c/users/isaacstalley/documents/github/libopencm3/lib/libopencm3_stm32f4.a(usb.o)
 .debug_macro   0x0000000000004908      0x124 /mnt/c/users/isaacstalley/documents/github/libopencm3/lib/libopencm3_stm32f4.a(usb_standard.o)
 .debug_macro   0x0000000000004a2c      0x132 /mnt/c/users/isaacstalley/documents/github/libopencm3/lib/libopencm3_stm32f4.a(usb_control.o)
 .debug_macro   0x0000000000004b5e       0x16 /mnt/c/users/isaacstalley/documents/github/libopencm3/lib/libopencm3_stm32f4.a(usb_control.o)
 .debug_macro   0x0000000000004b74      0x10e /mnt/c/users/isaacstalley/documents/github/libopencm3/lib/libopencm3_stm32f4.a(usb_control.o)
 .debug_macro   0x0000000000004c82       0x86 /mnt/c/users/isaacstalley/documents/github/libopencm3/lib/libopencm3_stm32f4.a(usb_control.o)
 .debug_macro   0x0000000000004d08       0x22 /mnt/c/users/isaacstalley/documents/github/libopencm3/lib/libopencm3_stm32f4.a(usb_control.o)
 .debug_macro   0x0000000000004d2a      0x1ab /mnt/c/users/isaacstalley/documents/github/libopencm3/lib/libopencm3_stm32f4.a(usb_f207.o)
 .debug_macro   0x0000000000004ed5       0x3a /mnt/c/users/isaacstalley/documents/github/libopencm3/lib/libopencm3_stm32f4.a(usb_f207.o)
 .debug_macro   0x0000000000004f0f      0x1a2 /mnt/c/users/isaacstalley/documents/github/libopencm3/lib/libopencm3_stm32f4.a(usb_f207.o)
 .debug_macro   0x00000000000050b1      0x8de /mnt/c/users/isaacstalley/documents/github/libopencm3/lib/libopencm3_stm32f4.a(usb_f207.o)
 .debug_macro   0x000000000000598f      0x24d /mnt/c/users/isaacstalley/documents/github/libopencm3/lib/libopencm3_stm32f4.a(usb_f207.o)
 .debug_macro   0x0000000000005bdc       0x8a /mnt/c/users/isaacstalley/documents/github/libopencm3/lib/libopencm3_stm32f4.a(vector.o)
 .debug_macro   0x0000000000005c66      0x452 /mnt/c/users/isaacstalley/documents/github/libopencm3/lib/libopencm3_stm32f4.a(vector.o)
 .debug_macro   0x00000000000060b8       0x6e /mnt/c/users/isaacstalley/documents/github/libopencm3/lib/libopencm3_stm32f4.a(vector.o)
 .debug_macro   0x0000000000006126      0x22c /mnt/c/users/isaacstalley/documents/github/libopencm3/lib/libopencm3_stm32f4.a(vector.o)
 .debug_macro   0x0000000000006352       0x49 /mnt/c/users/isaacstalley/documents/github/libopencm3/lib/libopencm3_stm32f4.a(systick.o)
 .debug_macro   0x000000000000639b       0x69 /mnt/c/users/isaacstalley/documents/github/libopencm3/lib/libopencm3_stm32f4.a(systick.o)
 .debug_macro   0x0000000000006404       0x8e /mnt/c/users/isaacstalley/documents/github/libopencm3/lib/libopencm3_stm32f4.a(flash_common_all.o)
 .debug_macro   0x0000000000006492       0x8e /mnt/c/users/isaacstalley/documents/github/libopencm3/lib/libopencm3_stm32f4.a(flash_common_idcache.o)
 .debug_macro   0x0000000000006520       0x6f /mnt/c/users/isaacstalley/documents/github/libopencm3/lib/libopencm3_stm32f4.a(pwr.o)
 .debug_macro   0x000000000000658f      0x13d /mnt/c/users/isaacstalley/documents/github/libopencm3/lib/libopencm3_stm32f4.a(usb_dwc_common.o)

Cross Reference Table

Symbol                                            File
__fini_array_end                                  /mnt/c/users/isaacstalley/documents/github/libopencm3/lib/libopencm3_stm32f4.a(vector.o)
__fini_array_start                                /mnt/c/users/isaacstalley/documents/github/libopencm3/lib/libopencm3_stm32f4.a(vector.o)
__gfx_state                                       build/gfx.o
__init_array_end                                  /mnt/c/users/isaacstalley/documents/github/libopencm3/lib/libopencm3_stm32f4.a(vector.o)
__init_array_start                                /mnt/c/users/isaacstalley/documents/github/libopencm3/lib/libopencm3_stm32f4.a(vector.o)
__malloc_free_list                                /usr/lib/gcc/arm-none-eabi/10.3.1/../../../arm-none-eabi/lib/thumb/v7e-m+fp/hard/libc_nano.a(lib_a-nano-mallocr.o)
                                                  /usr/lib/gcc/arm-none-eabi/10.3.1/../../../arm-none-eabi/lib/thumb/v7e-m+fp/hard/libc_nano.a(lib_a-nano-freer.o)
__malloc_lock                                     /usr/lib/gcc/arm-none-eabi/10.3.1/../../../arm-none-eabi/lib/thumb/v7e-m+fp/hard/libc_nano.a(lib_a-mlock.o)
                                                  /usr/lib/gcc/arm-none-eabi/10.3.1/../../../arm-none-eabi/lib/thumb/v7e-m+fp/hard/libc_nano.a(lib_a-nano-mallocr.o)
                                                  /usr/lib/gcc/arm-none-eabi/10.3.1/../../../arm-none-eabi/lib/thumb/v7e-m+fp/hard/libc_nano.a(lib_a-nano-freer.o)
__malloc_sbrk_start                               /usr/lib/gcc/arm-none-eabi/10.3.1/../../../arm-none-eabi/lib/thumb/v7e-m+fp/hard/libc_nano.a(lib_a-nano-mallocr.o)
__malloc_unlock                                   /usr/lib/gcc/arm-none-eabi/10.3.1/../../../arm-none-eabi/lib/thumb/v7e-m+fp/hard/libc_nano.a(lib_a-mlock.o)
                                                  /usr/lib/gcc/arm-none-eabi/10.3.1/../../../arm-none-eabi/lib/thumb/v7e-m+fp/hard/libc_nano.a(lib_a-nano-mallocr.o)
                                                  /usr/lib/gcc/arm-none-eabi/10.3.1/../../../arm-none-eabi/lib/thumb/v7e-m+fp/hard/libc_nano.a(lib_a-nano-freer.o)
__preinit_array_end                               /mnt/c/users/isaacstalley/documents/github/libopencm3/lib/libopencm3_stm32f4.a(vector.o)
__preinit_array_start                             /mnt/c/users/isaacstalley/documents/github/libopencm3/lib/libopencm3_stm32f4.a(vector.o)
__sf_fake_stderr                                  /usr/lib/gcc/arm-none-eabi/10.3.1/../../../arm-none-eabi/lib/thumb/v7e-m+fp/hard/libc_nano.a(lib_a-impure.o)
__sf_fake_stdin                                   /usr/lib/gcc/arm-none-eabi/10.3.1/../../../arm-none-eabi/lib/thumb/v7e-m+fp/hard/libc_nano.a(lib_a-impure.o)
__sf_fake_stdout                                  /usr/lib/gcc/arm-none-eabi/10.3.1/../../../arm-none-eabi/lib/thumb/v7e-m+fp/hard/libc_nano.a(lib_a-impure.o)
__ssprint_r                                       /usr/lib/gcc/arm-none-eabi/10.3.1/../../../arm-none-eabi/lib/thumb/v7e-m+fp/hard/libc_nano.a(lib_a-nano-svfprintf.o)
__ssputs_r                                        /usr/lib/gcc/arm-none-eabi/10.3.1/../../../arm-none-eabi/lib/thumb/v7e-m+fp/hard/libc_nano.a(lib_a-nano-svfprintf.o)
_data                                             /mnt/c/users/isaacstalley/documents/github/libopencm3/lib/libopencm3_stm32f4.a(vector.o)
_data_loadaddr                                    /mnt/c/users/isaacstalley/documents/github/libopencm3/lib/libopencm3_stm32f4.a(vector.o)
_ebss                                             /mnt/c/users/isaacstalley/documents/github/libopencm3/lib/libopencm3_stm32f4.a(vector.o)
_edata                                            /mnt/c/users/isaacstalley/documents/github/libopencm3/lib/libopencm3_stm32f4.a(vector.o)
_free_r                                           /usr/lib/gcc/arm-none-eabi/10.3.1/../../../arm-none-eabi/lib/thumb/v7e-m+fp/hard/libc_nano.a(lib_a-nano-freer.o)
                                                  /usr/lib/gcc/arm-none-eabi/10.3.1/../../../arm-none-eabi/lib/thumb/v7e-m+fp/hard/libc_nano.a(lib_a-reent.o)
                                                  /usr/lib/gcc/arm-none-eabi/10.3.1/../../../arm-none-eabi/lib/thumb/v7e-m+fp/hard/libc_nano.a(lib_a-nano-reallocr.o)
                                                  /usr/lib/gcc/arm-none-eabi/10.3.1/../../../arm-none-eabi/lib/thumb/v7e-m+fp/hard/libc_nano.a(lib_a-nano-svfprintf.o)
_global_impure_ptr                                /usr/lib/gcc/arm-none-eabi/10.3.1/../../../arm-none-eabi/lib/thumb/v7e-m+fp/hard/libc_nano.a(lib_a-impure.o)
_impure_ptr                                       /usr/lib/gcc/arm-none-eabi/10.3.1/../../../arm-none-eabi/lib/thumb/v7e-m+fp/hard/libc_nano.a(lib_a-impure.o)
                                                  /usr/lib/gcc/arm-none-eabi/10.3.1/../../../arm-none-eabi/lib/thumb/v7e-m+fp/hard/libc_nano.a(lib_a-reent.o)
                                                  /usr/lib/gcc/arm-none-eabi/10.3.1/../../../arm-none-eabi/lib/thumb/v7e-m+fp/hard/libc_nano.a(lib_a-sprintf.o)
_malloc_r                                         /usr/lib/gcc/arm-none-eabi/10.3.1/../../../arm-none-eabi/lib/thumb/v7e-m+fp/hard/libc_nano.a(lib_a-nano-mallocr.o)
                                                  /usr/lib/gcc/arm-none-eabi/10.3.1/../../../arm-none-eabi/lib/thumb/v7e-m+fp/hard/libc_nano.a(lib_a-nano-reallocr.o)
                                                  /usr/lib/gcc/arm-none-eabi/10.3.1/../../../arm-none-eabi/lib/thumb/v7e-m+fp/hard/libc_nano.a(lib_a-nano-svfprintf.o)
_malloc_usable_size_r                             /usr/lib/gcc/arm-none-eabi/10.3.1/../../../arm-none-eabi/lib/thumb/v7e-m+fp/hard/libc_nano.a(lib_a-nano-msizer.o)
                                                  /usr/lib/gcc/arm-none-eabi/10.3.1/../../../arm-none-eabi/lib/thumb/v7e-m+fp/hard/libc_nano.a(lib_a-nano-reallocr.o)
_printf_common                                    /usr/lib/gcc/arm-none-eabi/10.3.1/../../../arm-none-eabi/lib/thumb/v7e-m+fp/hard/libc_nano.a(lib_a-nano-vfprintf_i.o)
_printf_float                                     /usr/lib/gcc/arm-none-eabi/10.3.1/../../../arm-none-eabi/lib/thumb/v7e-m+fp/hard/libc_nano.a(lib_a-nano-svfprintf.o)
_printf_i                                         /usr/lib/gcc/arm-none-eabi/10.3.1/../../../arm-none-eabi/lib/thumb/v7e-m+fp/hard/libc_nano.a(lib_a-nano-vfprintf_i.o)
                                                  /usr/lib/gcc/arm-none-eabi/10.3.1/../../../arm-none-eabi/lib/thumb/v7e-m+fp/hard/libc_nano.a(lib_a-nano-svfprintf.o)
_realloc_r                                        /usr/lib/gcc/arm-none-eabi/10.3.1/../../../arm-none-eabi/lib/thumb/v7e-m+fp/hard/libc_nano.a(lib_a-nano-reallocr.o)
                                                  /usr/lib/gcc/arm-none-eabi/10.3.1/../../../arm-none-eabi/lib/thumb/v7e-m+fp/hard/libc_nano.a(lib_a-nano-svfprintf.o)
_reclaim_reent                                    /usr/lib/gcc/arm-none-eabi/10.3.1/../../../arm-none-eabi/lib/thumb/v7e-m+fp/hard/libc_nano.a(lib_a-reent.o)
_sbrk                                             /usr/lib/gcc/arm-none-eabi/10.3.1/../../../arm-none-eabi/lib/thumb/v7e-m+fp/hard/libnosys.a(sbrk.o)
                                                  /usr/lib/gcc/arm-none-eabi/10.3.1/../../../arm-none-eabi/lib/thumb/v7e-m+fp/hard/libc_nano.a(lib_a-sbrkr.o)
_sbrk_r                                           /usr/lib/gcc/arm-none-eabi/10.3.1/../../../arm-none-eabi/lib/thumb/v7e-m+fp/hard/libc_nano.a(lib_a-sbrkr.o)
                                                  /usr/lib/gcc/arm-none-eabi/10.3.1/../../../arm-none-eabi/lib/thumb/v7e-m+fp/hard/libc_nano.a(lib_a-nano-mallocr.o)
_siprintf_r                                       /usr/lib/gcc/arm-none-eabi/10.3.1/../../../arm-none-eabi/lib/thumb/v7e-m+fp/hard/libc_nano.a(lib_a-sprintf.o)
_sprintf_r                                        /usr/lib/gcc/arm-none-eabi/10.3.1/../../../arm-none-eabi/lib/thumb/v7e-m+fp/hard/libc_nano.a(lib_a-sprintf.o)
_stack                                            /mnt/c/users/isaacstalley/documents/github/libopencm3/lib/libopencm3_stm32f4.a(vector.o)
_svfiprintf_r                                     /usr/lib/gcc/arm-none-eabi/10.3.1/../../../arm-none-eabi/lib/thumb/v7e-m+fp/hard/libc_nano.a(lib_a-nano-svfprintf.o)
_svfprintf_r                                      /usr/lib/gcc/arm-none-eabi/10.3.1/../../../arm-none-eabi/lib/thumb/v7e-m+fp/hard/libc_nano.a(lib_a-nano-svfprintf.o)
                                                  /usr/lib/gcc/arm-none-eabi/10.3.1/../../../arm-none-eabi/lib/thumb/v7e-m+fp/hard/libc_nano.a(lib_a-sprintf.o)
_usbd_control_in                                  /mnt/c/users/isaacstalley/documents/github/libopencm3/lib/libopencm3_stm32f4.a(usb_control.o)
                                                  /mnt/c/users/isaacstalley/documents/github/libopencm3/lib/libopencm3_stm32f4.a(usb.o)
_usbd_control_out                                 /mnt/c/users/isaacstalley/documents/github/libopencm3/lib/libopencm3_stm32f4.a(usb_control.o)
                                                  /mnt/c/users/isaacstalley/documents/github/libopencm3/lib/libopencm3_stm32f4.a(usb.o)
_usbd_control_setup                               /mnt/c/users/isaacstalley/documents/github/libopencm3/lib/libopencm3_stm32f4.a(usb_control.o)
                                                  /mnt/c/users/isaacstalley/documents/github/libopencm3/lib/libopencm3_stm32f4.a(usb.o)
_usbd_reset                                       /mnt/c/users/isaacstalley/documents/github/libopencm3/lib/libopencm3_stm32f4.a(usb.o)
                                                  /mnt/c/users/isaacstalley/documents/github/libopencm3/lib/libopencm3_stm32f4.a(usb_dwc_common.o)
_usbd_standard_request                            /mnt/c/users/isaacstalley/documents/github/libopencm3/lib/libopencm3_stm32f4.a(usb_standard.o)
                                                  /mnt/c/users/isaacstalley/documents/github/libopencm3/lib/libopencm3_stm32f4.a(usb_control.o)
_usbd_standard_request_device                     /mnt/c/users/isaacstalley/documents/github/libopencm3/lib/libopencm3_stm32f4.a(usb_standard.o)
_usbd_standard_request_endpoint                   /mnt/c/users/isaacstalley/documents/github/libopencm3/lib/libopencm3_stm32f4.a(usb_standard.o)
_usbd_standard_request_interface                  /mnt/c/users/isaacstalley/documents/github/libopencm3/lib/libopencm3_stm32f4.a(usb_standard.o)
adc_awd                                           /mnt/c/users/isaacstalley/documents/github/libopencm3/lib/libopencm3_stm32f4.a(adc_common_v1_multi.o)
adc_clear_flag                                    /mnt/c/users/isaacstalley/documents/github/libopencm3/lib/libopencm3_stm32f4.a(adc_common_v1.o)
adc_clear_overrun_flag                            /mnt/c/users/isaacstalley/documents/github/libopencm3/lib/libopencm3_stm32f4.a(adc_common_v1_multi.o)
adc_disable_analog_watchdog_injected              /mnt/c/users/isaacstalley/documents/github/libopencm3/lib/libopencm3_stm32f4.a(adc_common_v1.o)
adc_disable_analog_watchdog_regular               /mnt/c/users/isaacstalley/documents/github/libopencm3/lib/libopencm3_stm32f4.a(adc_common_v1.o)
adc_disable_automatic_injected_group_conversion   /mnt/c/users/isaacstalley/documents/github/libopencm3/lib/libopencm3_stm32f4.a(adc_common_v1.o)
adc_disable_awd_interrupt                         /mnt/c/users/isaacstalley/documents/github/libopencm3/lib/libopencm3_stm32f4.a(adc_common_v1.o)
adc_disable_discontinuous_mode_injected           /mnt/c/users/isaacstalley/documents/github/libopencm3/lib/libopencm3_stm32f4.a(adc_common_v1.o)
adc_disable_discontinuous_mode_regular            /mnt/c/users/isaacstalley/documents/github/libopencm3/lib/libopencm3_stm32f4.a(adc_common_v1.o)
adc_disable_dma                                   /mnt/c/users/isaacstalley/documents/github/libopencm3/lib/libopencm3_stm32f4.a(adc_common_v1.o)
adc_disable_eoc_interrupt                         /mnt/c/users/isaacstalley/documents/github/libopencm3/lib/libopencm3_stm32f4.a(adc_common_v1.o)
adc_disable_eoc_interrupt_injected                /mnt/c/users/isaacstalley/documents/github/libopencm3/lib/libopencm3_stm32f4.a(adc_common_v1.o)
adc_disable_external_trigger_injected             /mnt/c/users/isaacstalley/documents/github/libopencm3/lib/libopencm3_stm32f4.a(adc_common_v1_multi.o)
                                                  /mnt/c/users/isaacstalley/documents/github/libopencm3/lib/libopencm3_stm32f4.a(adc_common_v1.o)
adc_disable_external_trigger_regular              /mnt/c/users/isaacstalley/documents/github/libopencm3/lib/libopencm3_stm32f4.a(adc_common_v1_multi.o)
adc_disable_overrun_interrupt                     /mnt/c/users/isaacstalley/documents/github/libopencm3/lib/libopencm3_stm32f4.a(adc_common_v1_multi.o)
adc_disable_scan_mode                             /mnt/c/users/isaacstalley/documents/github/libopencm3/lib/libopencm3_stm32f4.a(adc_common_v1.o)
                                                  build/adc.o
adc_disable_temperature_sensor                    /mnt/c/users/isaacstalley/documents/github/libopencm3/lib/libopencm3_stm32f4.a(adc_common_v1_multi.o)
adc_disable_vbat_sensor                           /mnt/c/users/isaacstalley/documents/github/libopencm3/lib/libopencm3_stm32f4.a(adc_common_f47.o)
adc_enable_analog_watchdog_injected               /mnt/c/users/isaacstalley/documents/github/libopencm3/lib/libopencm3_stm32f4.a(adc_common_v1.o)
adc_enable_analog_watchdog_on_all_channels        /mnt/c/users/isaacstalley/documents/github/libopencm3/lib/libopencm3_stm32f4.a(adc_common_v1.o)
adc_enable_analog_watchdog_on_selected_channel    /mnt/c/users/isaacstalley/documents/github/libopencm3/lib/libopencm3_stm32f4.a(adc_common_v1.o)
adc_enable_analog_watchdog_regular                /mnt/c/users/isaacstalley/documents/github/libopencm3/lib/libopencm3_stm32f4.a(adc_common_v1.o)
adc_enable_automatic_injected_group_conversion    /mnt/c/users/isaacstalley/documents/github/libopencm3/lib/libopencm3_stm32f4.a(adc_common_v1.o)
adc_enable_awd_interrupt                          /mnt/c/users/isaacstalley/documents/github/libopencm3/lib/libopencm3_stm32f4.a(adc_common_v1.o)
adc_enable_discontinuous_mode_injected            /mnt/c/users/isaacstalley/documents/github/libopencm3/lib/libopencm3_stm32f4.a(adc_common_v1.o)
adc_enable_discontinuous_mode_regular             /mnt/c/users/isaacstalley/documents/github/libopencm3/lib/libopencm3_stm32f4.a(adc_common_v1.o)
adc_enable_dma                                    /mnt/c/users/isaacstalley/documents/github/libopencm3/lib/libopencm3_stm32f4.a(adc_common_v1.o)
adc_enable_eoc_interrupt                          /mnt/c/users/isaacstalley/documents/github/libopencm3/lib/libopencm3_stm32f4.a(adc_common_v1.o)
adc_enable_eoc_interrupt_injected                 /mnt/c/users/isaacstalley/documents/github/libopencm3/lib/libopencm3_stm32f4.a(adc_common_v1.o)
adc_enable_external_trigger_injected              /mnt/c/users/isaacstalley/documents/github/libopencm3/lib/libopencm3_stm32f4.a(adc_common_v1_multi.o)
adc_enable_external_trigger_regular               /mnt/c/users/isaacstalley/documents/github/libopencm3/lib/libopencm3_stm32f4.a(adc_common_v1_multi.o)
adc_enable_overrun_interrupt                      /mnt/c/users/isaacstalley/documents/github/libopencm3/lib/libopencm3_stm32f4.a(adc_common_v1_multi.o)
adc_enable_scan_mode                              /mnt/c/users/isaacstalley/documents/github/libopencm3/lib/libopencm3_stm32f4.a(adc_common_v1.o)
adc_enable_temperature_sensor                     /mnt/c/users/isaacstalley/documents/github/libopencm3/lib/libopencm3_stm32f4.a(adc_common_v1_multi.o)
adc_enable_vbat_sensor                            /mnt/c/users/isaacstalley/documents/github/libopencm3/lib/libopencm3_stm32f4.a(adc_common_f47.o)
adc_eoc                                           /mnt/c/users/isaacstalley/documents/github/libopencm3/lib/libopencm3_stm32f4.a(adc_common_v1.o)
                                                  build/adc.o
adc_eoc_after_each                                /mnt/c/users/isaacstalley/documents/github/libopencm3/lib/libopencm3_stm32f4.a(adc_common_v1_multi.o)
adc_eoc_after_group                               /mnt/c/users/isaacstalley/documents/github/libopencm3/lib/libopencm3_stm32f4.a(adc_common_v1_multi.o)
adc_eoc_injected                                  /mnt/c/users/isaacstalley/documents/github/libopencm3/lib/libopencm3_stm32f4.a(adc_common_v1.o)
adc_get_flag                                      /mnt/c/users/isaacstalley/documents/github/libopencm3/lib/libopencm3_stm32f4.a(adc_common_v1.o)
adc_get_overrun_flag                              /mnt/c/users/isaacstalley/documents/github/libopencm3/lib/libopencm3_stm32f4.a(adc_common_v1_multi.o)
adc_isr                                           /mnt/c/users/isaacstalley/documents/github/libopencm3/lib/libopencm3_stm32f4.a(vector.o)
adc_power_off                                     /mnt/c/users/isaacstalley/documents/github/libopencm3/lib/libopencm3_stm32f4.a(adc_common_v1.o)
                                                  build/adc.o
adc_power_on                                      /mnt/c/users/isaacstalley/documents/github/libopencm3/lib/libopencm3_stm32f4.a(adc_common_v1_multi.o)
                                                  build/adc.o
adc_read_injected                                 /mnt/c/users/isaacstalley/documents/github/libopencm3/lib/libopencm3_stm32f4.a(adc_common_v1.o)
adc_read_regular                                  /mnt/c/users/isaacstalley/documents/github/libopencm3/lib/libopencm3_stm32f4.a(adc_common_v1.o)
                                                  build/adc.o
adc_set_clk_prescale                              /mnt/c/users/isaacstalley/documents/github/libopencm3/lib/libopencm3_stm32f4.a(adc_common_v1_multi.o)
adc_set_continuous_conversion_mode                /mnt/c/users/isaacstalley/documents/github/libopencm3/lib/libopencm3_stm32f4.a(adc_common_v1.o)
adc_set_dma_continue                              /mnt/c/users/isaacstalley/documents/github/libopencm3/lib/libopencm3_stm32f4.a(adc_common_v1_multi.o)
adc_set_dma_terminate                             /mnt/c/users/isaacstalley/documents/github/libopencm3/lib/libopencm3_stm32f4.a(adc_common_v1_multi.o)
adc_set_injected_offset                           /mnt/c/users/isaacstalley/documents/github/libopencm3/lib/libopencm3_stm32f4.a(adc_common_v1.o)
adc_set_injected_sequence                         /mnt/c/users/isaacstalley/documents/github/libopencm3/lib/libopencm3_stm32f4.a(adc_common_v1.o)
adc_set_left_aligned                              /mnt/c/users/isaacstalley/documents/github/libopencm3/lib/libopencm3_stm32f4.a(adc_common_v1.o)
adc_set_multi_mode                                /mnt/c/users/isaacstalley/documents/github/libopencm3/lib/libopencm3_stm32f4.a(adc_common_f47.o)
adc_set_regular_sequence                          /mnt/c/users/isaacstalley/documents/github/libopencm3/lib/libopencm3_stm32f4.a(adc_common_v1.o)
                                                  build/adc.o
adc_set_resolution                                /mnt/c/users/isaacstalley/documents/github/libopencm3/lib/libopencm3_stm32f4.a(adc_common_v1_multi.o)
adc_set_right_aligned                             /mnt/c/users/isaacstalley/documents/github/libopencm3/lib/libopencm3_stm32f4.a(adc_common_v1.o)
adc_set_sample_time                               /mnt/c/users/isaacstalley/documents/github/libopencm3/lib/libopencm3_stm32f4.a(adc_common_f47.o)
adc_set_sample_time_on_all_channels               /mnt/c/users/isaacstalley/documents/github/libopencm3/lib/libopencm3_stm32f4.a(adc_common_f47.o)
                                                  build/adc.o
adc_set_single_conversion_mode                    /mnt/c/users/isaacstalley/documents/github/libopencm3/lib/libopencm3_stm32f4.a(adc_common_v1.o)
adc_set_watchdog_high_threshold                   /mnt/c/users/isaacstalley/documents/github/libopencm3/lib/libopencm3_stm32f4.a(adc_common_v1.o)
adc_set_watchdog_low_threshold                    /mnt/c/users/isaacstalley/documents/github/libopencm3/lib/libopencm3_stm32f4.a(adc_common_v1.o)
adc_setup                                         build/adc.o
                                                  build/main.o
adc_start_conversion_injected                     /mnt/c/users/isaacstalley/documents/github/libopencm3/lib/libopencm3_stm32f4.a(adc_common_v1.o)
adc_start_conversion_regular                      /mnt/c/users/isaacstalley/documents/github/libopencm3/lib/libopencm3_stm32f4.a(adc_common_v1.o)
                                                  build/adc.o
blocking_handler                                  /mnt/c/users/isaacstalley/documents/github/libopencm3/lib/libopencm3_stm32f4.a(vector.o)
bus_fault_handler                                 /mnt/c/users/isaacstalley/documents/github/libopencm3/lib/libopencm3_stm32f4.a(vector.o)
can1_rx0_isr                                      /mnt/c/users/isaacstalley/documents/github/libopencm3/lib/libopencm3_stm32f4.a(vector.o)
can1_rx1_isr                                      /mnt/c/users/isaacstalley/documents/github/libopencm3/lib/libopencm3_stm32f4.a(vector.o)
can1_sce_isr                                      /mnt/c/users/isaacstalley/documents/github/libopencm3/lib/libopencm3_stm32f4.a(vector.o)
can1_tx_isr                                       /mnt/c/users/isaacstalley/documents/github/libopencm3/lib/libopencm3_stm32f4.a(vector.o)
can2_rx0_isr                                      /mnt/c/users/isaacstalley/documents/github/libopencm3/lib/libopencm3_stm32f4.a(vector.o)
can2_rx1_isr                                      /mnt/c/users/isaacstalley/documents/github/libopencm3/lib/libopencm3_stm32f4.a(vector.o)
can2_sce_isr                                      /mnt/c/users/isaacstalley/documents/github/libopencm3/lib/libopencm3_stm32f4.a(vector.o)
can2_tx_isr                                       /mnt/c/users/isaacstalley/documents/github/libopencm3/lib/libopencm3_stm32f4.a(vector.o)
cleanup_glue                                      /usr/lib/gcc/arm-none-eabi/10.3.1/../../../arm-none-eabi/lib/thumb/v7e-m+fp/hard/libc_nano.a(lib_a-reent.o)
clock_setup                                       build/clock.o
                                                  build/main.o
cmd_args                                          build/lcd-spi.o
cryp_isr                                          /mnt/c/users/isaacstalley/documents/github/libopencm3/lib/libopencm3_stm32f4.a(vector.o)
dcmi_isr                                          /mnt/c/users/isaacstalley/documents/github/libopencm3/lib/libopencm3_stm32f4.a(vector.o)
debug_monitor_handler                             /mnt/c/users/isaacstalley/documents/github/libopencm3/lib/libopencm3_stm32f4.a(vector.o)
dma1_stream0_isr                                  /mnt/c/users/isaacstalley/documents/github/libopencm3/lib/libopencm3_stm32f4.a(vector.o)
dma1_stream1_isr                                  /mnt/c/users/isaacstalley/documents/github/libopencm3/lib/libopencm3_stm32f4.a(vector.o)
dma1_stream2_isr                                  /mnt/c/users/isaacstalley/documents/github/libopencm3/lib/libopencm3_stm32f4.a(vector.o)
dma1_stream3_isr                                  /mnt/c/users/isaacstalley/documents/github/libopencm3/lib/libopencm3_stm32f4.a(vector.o)
dma1_stream4_isr                                  /mnt/c/users/isaacstalley/documents/github/libopencm3/lib/libopencm3_stm32f4.a(vector.o)
dma1_stream5_isr                                  /mnt/c/users/isaacstalley/documents/github/libopencm3/lib/libopencm3_stm32f4.a(vector.o)
dma1_stream6_isr                                  /mnt/c/users/isaacstalley/documents/github/libopencm3/lib/libopencm3_stm32f4.a(vector.o)
dma1_stream7_isr                                  /mnt/c/users/isaacstalley/documents/github/libopencm3/lib/libopencm3_stm32f4.a(vector.o)
dma2_stream0_isr                                  /mnt/c/users/isaacstalley/documents/github/libopencm3/lib/libopencm3_stm32f4.a(vector.o)
dma2_stream1_isr                                  /mnt/c/users/isaacstalley/documents/github/libopencm3/lib/libopencm3_stm32f4.a(vector.o)
dma2_stream2_isr                                  /mnt/c/users/isaacstalley/documents/github/libopencm3/lib/libopencm3_stm32f4.a(vector.o)
dma2_stream3_isr                                  /mnt/c/users/isaacstalley/documents/github/libopencm3/lib/libopencm3_stm32f4.a(vector.o)
dma2_stream4_isr                                  /mnt/c/users/isaacstalley/documents/github/libopencm3/lib/libopencm3_stm32f4.a(vector.o)
dma2_stream5_isr                                  /mnt/c/users/isaacstalley/documents/github/libopencm3/lib/libopencm3_stm32f4.a(vector.o)
dma2_stream6_isr                                  /mnt/c/users/isaacstalley/documents/github/libopencm3/lib/libopencm3_stm32f4.a(vector.o)
dma2_stream7_isr                                  /mnt/c/users/isaacstalley/documents/github/libopencm3/lib/libopencm3_stm32f4.a(vector.o)
dma2d_isr                                         /mnt/c/users/isaacstalley/documents/github/libopencm3/lib/libopencm3_stm32f4.a(vector.o)
dwc_disconnect                                    /mnt/c/users/isaacstalley/documents/github/libopencm3/lib/libopencm3_stm32f4.a(usb_dwc_common.o)
                                                  /mnt/c/users/isaacstalley/documents/github/libopencm3/lib/libopencm3_stm32f4.a(usb_f207.o)
dwc_endpoints_reset                               /mnt/c/users/isaacstalley/documents/github/libopencm3/lib/libopencm3_stm32f4.a(usb_dwc_common.o)
                                                  /mnt/c/users/isaacstalley/documents/github/libopencm3/lib/libopencm3_stm32f4.a(usb_f207.o)
dwc_ep_nak_set                                    /mnt/c/users/isaacstalley/documents/github/libopencm3/lib/libopencm3_stm32f4.a(usb_dwc_common.o)
                                                  /mnt/c/users/isaacstalley/documents/github/libopencm3/lib/libopencm3_stm32f4.a(usb_f207.o)
dwc_ep_read_packet                                /mnt/c/users/isaacstalley/documents/github/libopencm3/lib/libopencm3_stm32f4.a(usb_dwc_common.o)
                                                  /mnt/c/users/isaacstalley/documents/github/libopencm3/lib/libopencm3_stm32f4.a(usb_f207.o)
dwc_ep_setup                                      /mnt/c/users/isaacstalley/documents/github/libopencm3/lib/libopencm3_stm32f4.a(usb_dwc_common.o)
                                                  /mnt/c/users/isaacstalley/documents/github/libopencm3/lib/libopencm3_stm32f4.a(usb_f207.o)
dwc_ep_stall_get                                  /mnt/c/users/isaacstalley/documents/github/libopencm3/lib/libopencm3_stm32f4.a(usb_dwc_common.o)
                                                  /mnt/c/users/isaacstalley/documents/github/libopencm3/lib/libopencm3_stm32f4.a(usb_f207.o)
dwc_ep_stall_set                                  /mnt/c/users/isaacstalley/documents/github/libopencm3/lib/libopencm3_stm32f4.a(usb_dwc_common.o)
                                                  /mnt/c/users/isaacstalley/documents/github/libopencm3/lib/libopencm3_stm32f4.a(usb_f207.o)
dwc_ep_write_packet                               /mnt/c/users/isaacstalley/documents/github/libopencm3/lib/libopencm3_stm32f4.a(usb_dwc_common.o)
                                                  /mnt/c/users/isaacstalley/documents/github/libopencm3/lib/libopencm3_stm32f4.a(usb_f207.o)
dwc_poll                                          /mnt/c/users/isaacstalley/documents/github/libopencm3/lib/libopencm3_stm32f4.a(usb_dwc_common.o)
                                                  /mnt/c/users/isaacstalley/documents/github/libopencm3/lib/libopencm3_stm32f4.a(usb_f207.o)
dwc_set_address                                   /mnt/c/users/isaacstalley/documents/github/libopencm3/lib/libopencm3_stm32f4.a(usb_dwc_common.o)
                                                  /mnt/c/users/isaacstalley/documents/github/libopencm3/lib/libopencm3_stm32f4.a(usb_f207.o)
end                                               /usr/lib/gcc/arm-none-eabi/10.3.1/../../../arm-none-eabi/lib/thumb/v7e-m+fp/hard/libnosys.a(sbrk.o)
errno                                             /usr/lib/gcc/arm-none-eabi/10.3.1/../../../arm-none-eabi/lib/thumb/v7e-m+fp/hard/libc_nano.a(lib_a-reent.o)
                                                  /usr/lib/gcc/arm-none-eabi/10.3.1/../../../arm-none-eabi/lib/thumb/v7e-m+fp/hard/libc_nano.a(lib_a-sbrkr.o)
eth_isr                                           /mnt/c/users/isaacstalley/documents/github/libopencm3/lib/libopencm3_stm32f4.a(vector.o)
eth_wkup_isr                                      /mnt/c/users/isaacstalley/documents/github/libopencm3/lib/libopencm3_stm32f4.a(vector.o)
exti0_isr                                         /mnt/c/users/isaacstalley/documents/github/libopencm3/lib/libopencm3_stm32f4.a(vector.o)
exti15_10_isr                                     /mnt/c/users/isaacstalley/documents/github/libopencm3/lib/libopencm3_stm32f4.a(vector.o)
exti1_isr                                         /mnt/c/users/isaacstalley/documents/github/libopencm3/lib/libopencm3_stm32f4.a(vector.o)
exti2_isr                                         /mnt/c/users/isaacstalley/documents/github/libopencm3/lib/libopencm3_stm32f4.a(vector.o)
exti3_isr                                         /mnt/c/users/isaacstalley/documents/github/libopencm3/lib/libopencm3_stm32f4.a(vector.o)
exti4_isr                                         /mnt/c/users/isaacstalley/documents/github/libopencm3/lib/libopencm3_stm32f4.a(vector.o)
exti9_5_isr                                       /mnt/c/users/isaacstalley/documents/github/libopencm3/lib/libopencm3_stm32f4.a(vector.o)
finished_frame                                    build/lcd-spi.o
flash_dcache_disable                              /mnt/c/users/isaacstalley/documents/github/libopencm3/lib/libopencm3_stm32f4.a(flash_common_idcache.o)
                                                  /mnt/c/users/isaacstalley/documents/github/libopencm3/lib/libopencm3_stm32f4.a(rcc.o)
flash_dcache_enable                               /mnt/c/users/isaacstalley/documents/github/libopencm3/lib/libopencm3_stm32f4.a(flash_common_idcache.o)
                                                  /mnt/c/users/isaacstalley/documents/github/libopencm3/lib/libopencm3_stm32f4.a(rcc.o)
flash_dcache_reset                                /mnt/c/users/isaacstalley/documents/github/libopencm3/lib/libopencm3_stm32f4.a(flash_common_idcache.o)
flash_icache_disable                              /mnt/c/users/isaacstalley/documents/github/libopencm3/lib/libopencm3_stm32f4.a(flash_common_idcache.o)
                                                  /mnt/c/users/isaacstalley/documents/github/libopencm3/lib/libopencm3_stm32f4.a(rcc.o)
flash_icache_enable                               /mnt/c/users/isaacstalley/documents/github/libopencm3/lib/libopencm3_stm32f4.a(flash_common_idcache.o)
                                                  /mnt/c/users/isaacstalley/documents/github/libopencm3/lib/libopencm3_stm32f4.a(rcc.o)
flash_icache_reset                                /mnt/c/users/isaacstalley/documents/github/libopencm3/lib/libopencm3_stm32f4.a(flash_common_idcache.o)
flash_isr                                         /mnt/c/users/isaacstalley/documents/github/libopencm3/lib/libopencm3_stm32f4.a(vector.o)
flash_prefetch_disable                            /mnt/c/users/isaacstalley/documents/github/libopencm3/lib/libopencm3_stm32f4.a(flash_common_all.o)
flash_prefetch_enable                             /mnt/c/users/isaacstalley/documents/github/libopencm3/lib/libopencm3_stm32f4.a(flash_common_all.o)
flash_set_ws                                      /mnt/c/users/isaacstalley/documents/github/libopencm3/lib/libopencm3_stm32f4.a(flash_common_all.o)
                                                  /mnt/c/users/isaacstalley/documents/github/libopencm3/lib/libopencm3_stm32f4.a(rcc.o)
flash_unlock_option_bytes                         /mnt/c/users/isaacstalley/documents/github/libopencm3/lib/libopencm3_stm32f4.a(flash_common_all.o)
forming_frame                                     build/lcd-spi.o
fpu_isr                                           /mnt/c/users/isaacstalley/documents/github/libopencm3/lib/libopencm3_stm32f4.a(vector.o)
fsmc_isr                                          /mnt/c/users/isaacstalley/documents/github/libopencm3/lib/libopencm3_stm32f4.a(vector.o)
gfx_drawBitmap                                    build/gfx.o
gfx_drawChar                                      build/gfx.o
gfx_drawCircle                                    build/gfx.o
gfx_drawCircleHelper                              build/gfx.o
gfx_drawFastHLine                                 build/gfx.o
gfx_drawFastVLine                                 build/gfx.o
gfx_drawLine                                      build/gfx.o
gfx_drawPixel                                     build/gfx.o
gfx_drawRect                                      build/gfx.o
gfx_drawRoundRect                                 build/gfx.o
gfx_drawTriangle                                  build/gfx.o
gfx_fillCircle                                    build/gfx.o
gfx_fillCircleHelper                              build/gfx.o
gfx_fillRect                                      build/gfx.o
gfx_fillRoundRect                                 build/gfx.o
                                                  build/main.o
gfx_fillScreen                                    build/gfx.o
gfx_fillTriangle                                  build/gfx.o
gfx_getRotation                                   build/gfx.o
gfx_height                                        build/gfx.o
gfx_init                                          build/gfx.o
                                                  build/main.o
gfx_puts                                          build/gfx.o
                                                  build/main.o
gfx_setCursor                                     build/gfx.o
                                                  build/main.o
gfx_setRotation                                   build/gfx.o
gfx_setTextColor                                  build/gfx.o
gfx_setTextSize                                   build/gfx.o
                                                  build/main.o
gfx_setTextWrap                                   build/gfx.o
gfx_width                                         build/gfx.o
gfx_write                                         build/gfx.o
gpio_clear                                        /mnt/c/users/isaacstalley/documents/github/libopencm3/lib/libopencm3_stm32f4.a(gpio_common_all.o)
                                                  build/spi-mems.o
                                                  build/lcd-spi.o
gpio_get                                          /mnt/c/users/isaacstalley/documents/github/libopencm3/lib/libopencm3_stm32f4.a(gpio_common_all.o)
gpio_mode_setup                                   /mnt/c/users/isaacstalley/documents/github/libopencm3/lib/libopencm3_stm32f4.a(gpio_common_f0234.o)
                                                  build/usb-com.o
                                                  build/spi-mems.o
                                                  build/sdram.o
                                                  build/lcd-spi.o
                                                  build/adc.o
gpio_port_config_lock                             /mnt/c/users/isaacstalley/documents/github/libopencm3/lib/libopencm3_stm32f4.a(gpio_common_all.o)
gpio_port_read                                    /mnt/c/users/isaacstalley/documents/github/libopencm3/lib/libopencm3_stm32f4.a(gpio_common_all.o)
gpio_port_write                                   /mnt/c/users/isaacstalley/documents/github/libopencm3/lib/libopencm3_stm32f4.a(gpio_common_all.o)
gpio_set                                          /mnt/c/users/isaacstalley/documents/github/libopencm3/lib/libopencm3_stm32f4.a(gpio_common_all.o)
                                                  build/spi-mems.o
                                                  build/lcd-spi.o
gpio_set_af                                       /mnt/c/users/isaacstalley/documents/github/libopencm3/lib/libopencm3_stm32f4.a(gpio_common_f0234.o)
                                                  build/usb-com.o
                                                  build/spi-mems.o
                                                  build/sdram.o
                                                  build/lcd-spi.o
gpio_set_output_options                           /mnt/c/users/isaacstalley/documents/github/libopencm3/lib/libopencm3_stm32f4.a(gpio_common_f0234.o)
                                                  build/spi-mems.o
                                                  build/sdram.o
gpio_toggle                                       /mnt/c/users/isaacstalley/documents/github/libopencm3/lib/libopencm3_stm32f4.a(gpio_common_all.o)
hard_fault_handler                                /mnt/c/users/isaacstalley/documents/github/libopencm3/lib/libopencm3_stm32f4.a(vector.o)
hash_rng_isr                                      /mnt/c/users/isaacstalley/documents/github/libopencm3/lib/libopencm3_stm32f4.a(vector.o)
i2c1_er_isr                                       /mnt/c/users/isaacstalley/documents/github/libopencm3/lib/libopencm3_stm32f4.a(vector.o)
i2c1_ev_isr                                       /mnt/c/users/isaacstalley/documents/github/libopencm3/lib/libopencm3_stm32f4.a(vector.o)
i2c2_er_isr                                       /mnt/c/users/isaacstalley/documents/github/libopencm3/lib/libopencm3_stm32f4.a(vector.o)
i2c2_ev_isr                                       /mnt/c/users/isaacstalley/documents/github/libopencm3/lib/libopencm3_stm32f4.a(vector.o)
i2c3_er_isr                                       /mnt/c/users/isaacstalley/documents/github/libopencm3/lib/libopencm3_stm32f4.a(vector.o)
i2c3_ev_isr                                       /mnt/c/users/isaacstalley/documents/github/libopencm3/lib/libopencm3_stm32f4.a(vector.o)
initialize_display                                build/lcd-spi.o
lcd_command                                       build/lcd-spi.o
lcd_draw_pixel                                    build/lcd-spi.o
                                                  build/main.o
lcd_show_frame                                    build/lcd-spi.o
                                                  build/main.o
lcd_spi_init                                      build/lcd-spi.o
                                                  build/main.o
lcd_tft_err_isr                                   /mnt/c/users/isaacstalley/documents/github/libopencm3/lib/libopencm3_stm32f4.a(vector.o)
lcd_tft_isr                                       /mnt/c/users/isaacstalley/documents/github/libopencm3/lib/libopencm3_stm32f4.a(vector.o)
main                                              build/main.o
                                                  /mnt/c/users/isaacstalley/documents/github/libopencm3/lib/libopencm3_stm32f4.a(vector.o)
mem_manage_handler                                /mnt/c/users/isaacstalley/documents/github/libopencm3/lib/libopencm3_stm32f4.a(vector.o)
memchr                                            /usr/lib/gcc/arm-none-eabi/10.3.1/../../../arm-none-eabi/lib/thumb/v7e-m+fp/hard/libc_nano.a(lib_a-memchr.o)
                                                  /usr/lib/gcc/arm-none-eabi/10.3.1/../../../arm-none-eabi/lib/thumb/v7e-m+fp/hard/libc_nano.a(lib_a-nano-vfprintf_i.o)
                                                  /usr/lib/gcc/arm-none-eabi/10.3.1/../../../arm-none-eabi/lib/thumb/v7e-m+fp/hard/libc_nano.a(lib_a-nano-svfprintf.o)
memcpy                                            /usr/lib/gcc/arm-none-eabi/10.3.1/../../../arm-none-eabi/lib/thumb/v7e-m+fp/hard/libc_nano.a(lib_a-memcpy.o)
                                                  /usr/lib/gcc/arm-none-eabi/10.3.1/../../../arm-none-eabi/lib/thumb/v7e-m+fp/hard/libc_nano.a(lib_a-nano-reallocr.o)
                                                  /usr/lib/gcc/arm-none-eabi/10.3.1/../../../arm-none-eabi/lib/thumb/v7e-m+fp/hard/libc_nano.a(lib_a-nano-svfprintf.o)
                                                  /mnt/c/users/isaacstalley/documents/github/libopencm3/lib/libopencm3_stm32f4.a(usb_dwc_common.o)
                                                  /mnt/c/users/isaacstalley/documents/github/libopencm3/lib/libopencm3_stm32f4.a(usb_standard.o)
memmove                                           /usr/lib/gcc/arm-none-eabi/10.3.1/../../../arm-none-eabi/lib/thumb/v7e-m+fp/hard/libc_nano.a(lib_a-memmove.o)
                                                  /usr/lib/gcc/arm-none-eabi/10.3.1/../../../arm-none-eabi/lib/thumb/v7e-m+fp/hard/libc_nano.a(lib_a-nano-svfprintf.o)
mems_init                                         build/spi-mems.o
                                                  build/main.o
msleep                                            build/clock.o
                                                  build/sdram.o
                                                  build/lcd-spi.o
nmi_handler                                       /mnt/c/users/isaacstalley/documents/github/libopencm3/lib/libopencm3_stm32f4.a(vector.o)
null_handler                                      /mnt/c/users/isaacstalley/documents/github/libopencm3/lib/libopencm3_stm32f4.a(vector.o)
nvic_wwdg_isr                                     /mnt/c/users/isaacstalley/documents/github/libopencm3/lib/libopencm3_stm32f4.a(vector.o)
otg_fs_isr                                        /mnt/c/users/isaacstalley/documents/github/libopencm3/lib/libopencm3_stm32f4.a(vector.o)
otg_hs_ep1_in_isr                                 /mnt/c/users/isaacstalley/documents/github/libopencm3/lib/libopencm3_stm32f4.a(vector.o)
otg_hs_ep1_out_isr                                /mnt/c/users/isaacstalley/documents/github/libopencm3/lib/libopencm3_stm32f4.a(vector.o)
otg_hs_isr                                        /mnt/c/users/isaacstalley/documents/github/libopencm3/lib/libopencm3_stm32f4.a(vector.o)
otg_hs_wkup_isr                                   /mnt/c/users/isaacstalley/documents/github/libopencm3/lib/libopencm3_stm32f4.a(vector.o)
pend_sv_handler                                   /mnt/c/users/isaacstalley/documents/github/libopencm3/lib/libopencm3_stm32f4.a(vector.o)
pvd_isr                                           /mnt/c/users/isaacstalley/documents/github/libopencm3/lib/libopencm3_stm32f4.a(vector.o)
pwr_set_vos_scale                                 /mnt/c/users/isaacstalley/documents/github/libopencm3/lib/libopencm3_stm32f4.a(pwr.o)
                                                  /mnt/c/users/isaacstalley/documents/github/libopencm3/lib/libopencm3_stm32f4.a(rcc.o)
rcc_ahb_frequency                                 /mnt/c/users/isaacstalley/documents/github/libopencm3/lib/libopencm3_stm32f4.a(rcc.o)
rcc_apb1_frequency                                /mnt/c/users/isaacstalley/documents/github/libopencm3/lib/libopencm3_stm32f4.a(rcc.o)
rcc_apb2_frequency                                /mnt/c/users/isaacstalley/documents/github/libopencm3/lib/libopencm3_stm32f4.a(rcc.o)
rcc_clock_setup_hse_3v3                           /mnt/c/users/isaacstalley/documents/github/libopencm3/lib/libopencm3_stm32f4.a(rcc.o)
rcc_clock_setup_pll                               /mnt/c/users/isaacstalley/documents/github/libopencm3/lib/libopencm3_stm32f4.a(rcc.o)
                                                  build/clock.o
rcc_css_disable                                   /mnt/c/users/isaacstalley/documents/github/libopencm3/lib/libopencm3_stm32f4.a(rcc.o)
rcc_css_enable                                    /mnt/c/users/isaacstalley/documents/github/libopencm3/lib/libopencm3_stm32f4.a(rcc.o)
rcc_css_int_clear                                 /mnt/c/users/isaacstalley/documents/github/libopencm3/lib/libopencm3_stm32f4.a(rcc.o)
rcc_css_int_flag                                  /mnt/c/users/isaacstalley/documents/github/libopencm3/lib/libopencm3_stm32f4.a(rcc.o)
rcc_get_div_from_hpre                             /mnt/c/users/isaacstalley/documents/github/libopencm3/lib/libopencm3_stm32f4.a(rcc_common_all.o)
rcc_get_i2c_clk_freq                              /mnt/c/users/isaacstalley/documents/github/libopencm3/lib/libopencm3_stm32f4.a(rcc.o)
rcc_get_spi_clk_freq                              /mnt/c/users/isaacstalley/documents/github/libopencm3/lib/libopencm3_stm32f4.a(rcc.o)
rcc_get_timer_clk_freq                            /mnt/c/users/isaacstalley/documents/github/libopencm3/lib/libopencm3_stm32f4.a(rcc.o)
rcc_get_usart_clk_freq                            /mnt/c/users/isaacstalley/documents/github/libopencm3/lib/libopencm3_stm32f4.a(rcc.o)
rcc_hse_12mhz_3v3                                 /mnt/c/users/isaacstalley/documents/github/libopencm3/lib/libopencm3_stm32f4.a(rcc.o)
rcc_hse_16mhz_3v3                                 /mnt/c/users/isaacstalley/documents/github/libopencm3/lib/libopencm3_stm32f4.a(rcc.o)
rcc_hse_25mhz_3v3                                 /mnt/c/users/isaacstalley/documents/github/libopencm3/lib/libopencm3_stm32f4.a(rcc.o)
rcc_hse_8mhz_3v3                                  /mnt/c/users/isaacstalley/documents/github/libopencm3/lib/libopencm3_stm32f4.a(rcc.o)
                                                  build/clock.o
rcc_hsi_configs                                   /mnt/c/users/isaacstalley/documents/github/libopencm3/lib/libopencm3_stm32f4.a(rcc.o)
rcc_is_osc_ready                                  /mnt/c/users/isaacstalley/documents/github/libopencm3/lib/libopencm3_stm32f4.a(rcc.o)
rcc_isr                                           /mnt/c/users/isaacstalley/documents/github/libopencm3/lib/libopencm3_stm32f4.a(vector.o)
rcc_osc_bypass_disable                            /mnt/c/users/isaacstalley/documents/github/libopencm3/lib/libopencm3_stm32f4.a(rcc_common_all.o)
rcc_osc_bypass_enable                             /mnt/c/users/isaacstalley/documents/github/libopencm3/lib/libopencm3_stm32f4.a(rcc_common_all.o)
rcc_osc_off                                       /mnt/c/users/isaacstalley/documents/github/libopencm3/lib/libopencm3_stm32f4.a(rcc.o)
rcc_osc_on                                        /mnt/c/users/isaacstalley/documents/github/libopencm3/lib/libopencm3_stm32f4.a(rcc.o)
rcc_osc_ready_int_clear                           /mnt/c/users/isaacstalley/documents/github/libopencm3/lib/libopencm3_stm32f4.a(rcc.o)
rcc_osc_ready_int_disable                         /mnt/c/users/isaacstalley/documents/github/libopencm3/lib/libopencm3_stm32f4.a(rcc.o)
rcc_osc_ready_int_enable                          /mnt/c/users/isaacstalley/documents/github/libopencm3/lib/libopencm3_stm32f4.a(rcc.o)
rcc_osc_ready_int_flag                            /mnt/c/users/isaacstalley/documents/github/libopencm3/lib/libopencm3_stm32f4.a(rcc.o)
rcc_periph_clock_disable                          /mnt/c/users/isaacstalley/documents/github/libopencm3/lib/libopencm3_stm32f4.a(rcc_common_all.o)
rcc_periph_clock_enable                           /mnt/c/users/isaacstalley/documents/github/libopencm3/lib/libopencm3_stm32f4.a(rcc_common_all.o)
                                                  /mnt/c/users/isaacstalley/documents/github/libopencm3/lib/libopencm3_stm32f4.a(usb_f207.o)
                                                  /mnt/c/users/isaacstalley/documents/github/libopencm3/lib/libopencm3_stm32f4.a(rcc.o)
                                                  build/usb-com.o
                                                  build/spi-mems.o
                                                  build/sdram.o
                                                  build/lcd-spi.o
                                                  build/adc.o
rcc_periph_reset_hold                             /mnt/c/users/isaacstalley/documents/github/libopencm3/lib/libopencm3_stm32f4.a(rcc_common_all.o)
rcc_periph_reset_pulse                            /mnt/c/users/isaacstalley/documents/github/libopencm3/lib/libopencm3_stm32f4.a(rcc_common_all.o)
rcc_periph_reset_release                          /mnt/c/users/isaacstalley/documents/github/libopencm3/lib/libopencm3_stm32f4.a(rcc_common_all.o)
rcc_peripheral_clear_reset                        /mnt/c/users/isaacstalley/documents/github/libopencm3/lib/libopencm3_stm32f4.a(rcc_common_all.o)
rcc_peripheral_disable_clock                      /mnt/c/users/isaacstalley/documents/github/libopencm3/lib/libopencm3_stm32f4.a(rcc_common_all.o)
rcc_peripheral_enable_clock                       /mnt/c/users/isaacstalley/documents/github/libopencm3/lib/libopencm3_stm32f4.a(rcc_common_all.o)
rcc_peripheral_reset                              /mnt/c/users/isaacstalley/documents/github/libopencm3/lib/libopencm3_stm32f4.a(rcc_common_all.o)
rcc_plli2s_config                                 /mnt/c/users/isaacstalley/documents/github/libopencm3/lib/libopencm3_stm32f4.a(rcc.o)
rcc_pllsai_config                                 /mnt/c/users/isaacstalley/documents/github/libopencm3/lib/libopencm3_stm32f4.a(rcc.o)
rcc_pllsai_postscalers                            /mnt/c/users/isaacstalley/documents/github/libopencm3/lib/libopencm3_stm32f4.a(rcc.o)
rcc_set_hpre                                      /mnt/c/users/isaacstalley/documents/github/libopencm3/lib/libopencm3_stm32f4.a(rcc.o)
rcc_set_main_pll_hse                              /mnt/c/users/isaacstalley/documents/github/libopencm3/lib/libopencm3_stm32f4.a(rcc.o)
rcc_set_main_pll_hsi                              /mnt/c/users/isaacstalley/documents/github/libopencm3/lib/libopencm3_stm32f4.a(rcc.o)
rcc_set_mco                                       /mnt/c/users/isaacstalley/documents/github/libopencm3/lib/libopencm3_stm32f4.a(rcc_common_all.o)
rcc_set_pll_source                                /mnt/c/users/isaacstalley/documents/github/libopencm3/lib/libopencm3_stm32f4.a(rcc.o)
rcc_set_ppre1                                     /mnt/c/users/isaacstalley/documents/github/libopencm3/lib/libopencm3_stm32f4.a(rcc.o)
rcc_set_ppre2                                     /mnt/c/users/isaacstalley/documents/github/libopencm3/lib/libopencm3_stm32f4.a(rcc.o)
rcc_set_rtcpre                                    /mnt/c/users/isaacstalley/documents/github/libopencm3/lib/libopencm3_stm32f4.a(rcc.o)
rcc_set_sysclk_source                             /mnt/c/users/isaacstalley/documents/github/libopencm3/lib/libopencm3_stm32f4.a(rcc.o)
rcc_system_clock_source                           /mnt/c/users/isaacstalley/documents/github/libopencm3/lib/libopencm3_stm32f4.a(rcc.o)
rcc_wait_for_osc_ready                            /mnt/c/users/isaacstalley/documents/github/libopencm3/lib/libopencm3_stm32f4.a(rcc.o)
rcc_wait_for_sysclk_status                        /mnt/c/users/isaacstalley/documents/github/libopencm3/lib/libopencm3_stm32f4.a(rcc.o)
read_adc_naiive                                   build/adc.o
                                                  build/main.o
read_xyz                                          build/spi-mems.o
                                                  build/main.o
reset_handler                                     /mnt/c/users/isaacstalley/documents/github/libopencm3/lib/libopencm3_stm32f4.a(vector.o)
rtc_alarm_isr                                     /mnt/c/users/isaacstalley/documents/github/libopencm3/lib/libopencm3_stm32f4.a(vector.o)
rtc_wkup_isr                                      /mnt/c/users/isaacstalley/documents/github/libopencm3/lib/libopencm3_stm32f4.a(vector.o)
sai1_isr                                          /mnt/c/users/isaacstalley/documents/github/libopencm3/lib/libopencm3_stm32f4.a(vector.o)
sdio_isr                                          /mnt/c/users/isaacstalley/documents/github/libopencm3/lib/libopencm3_stm32f4.a(vector.o)
sdram_command                                     /mnt/c/users/isaacstalley/documents/github/libopencm3/lib/libopencm3_stm32f4.a(fmc_common_f47.o)
                                                  build/sdram.o
sdram_init                                        build/sdram.o
                                                  build/main.o
sdram_timing                                      /mnt/c/users/isaacstalley/documents/github/libopencm3/lib/libopencm3_stm32f4.a(fmc_common_f47.o)
                                                  build/sdram.o
siprintf                                          /usr/lib/gcc/arm-none-eabi/10.3.1/../../../arm-none-eabi/lib/thumb/v7e-m+fp/hard/libc_nano.a(lib_a-sprintf.o)
spi1_isr                                          /mnt/c/users/isaacstalley/documents/github/libopencm3/lib/libopencm3_stm32f4.a(vector.o)
spi2_isr                                          /mnt/c/users/isaacstalley/documents/github/libopencm3/lib/libopencm3_stm32f4.a(vector.o)
spi3_isr                                          /mnt/c/users/isaacstalley/documents/github/libopencm3/lib/libopencm3_stm32f4.a(vector.o)
spi4_isr                                          /mnt/c/users/isaacstalley/documents/github/libopencm3/lib/libopencm3_stm32f4.a(vector.o)
spi5_isr                                          /mnt/c/users/isaacstalley/documents/github/libopencm3/lib/libopencm3_stm32f4.a(vector.o)
spi6_isr                                          /mnt/c/users/isaacstalley/documents/github/libopencm3/lib/libopencm3_stm32f4.a(vector.o)
spi_clean_disable                                 /mnt/c/users/isaacstalley/documents/github/libopencm3/lib/libopencm3_stm32f4.a(spi_common_all.o)
spi_disable                                       /mnt/c/users/isaacstalley/documents/github/libopencm3/lib/libopencm3_stm32f4.a(spi_common_all.o)
spi_disable_crc                                   /mnt/c/users/isaacstalley/documents/github/libopencm3/lib/libopencm3_stm32f4.a(spi_common_all.o)
spi_disable_error_interrupt                       /mnt/c/users/isaacstalley/documents/github/libopencm3/lib/libopencm3_stm32f4.a(spi_common_all.o)
spi_disable_rx_buffer_not_empty_interrupt         /mnt/c/users/isaacstalley/documents/github/libopencm3/lib/libopencm3_stm32f4.a(spi_common_all.o)
spi_disable_rx_dma                                /mnt/c/users/isaacstalley/documents/github/libopencm3/lib/libopencm3_stm32f4.a(spi_common_all.o)
spi_disable_software_slave_management             /mnt/c/users/isaacstalley/documents/github/libopencm3/lib/libopencm3_stm32f4.a(spi_common_all.o)
spi_disable_ss_output                             /mnt/c/users/isaacstalley/documents/github/libopencm3/lib/libopencm3_stm32f4.a(spi_common_all.o)
spi_disable_tx_buffer_empty_interrupt             /mnt/c/users/isaacstalley/documents/github/libopencm3/lib/libopencm3_stm32f4.a(spi_common_all.o)
spi_disable_tx_dma                                /mnt/c/users/isaacstalley/documents/github/libopencm3/lib/libopencm3_stm32f4.a(spi_common_all.o)
spi_enable                                        /mnt/c/users/isaacstalley/documents/github/libopencm3/lib/libopencm3_stm32f4.a(spi_common_all.o)
                                                  build/lcd-spi.o
spi_enable_crc                                    /mnt/c/users/isaacstalley/documents/github/libopencm3/lib/libopencm3_stm32f4.a(spi_common_all.o)
spi_enable_error_interrupt                        /mnt/c/users/isaacstalley/documents/github/libopencm3/lib/libopencm3_stm32f4.a(spi_common_all.o)
spi_enable_rx_buffer_not_empty_interrupt          /mnt/c/users/isaacstalley/documents/github/libopencm3/lib/libopencm3_stm32f4.a(spi_common_all.o)
spi_enable_rx_dma                                 /mnt/c/users/isaacstalley/documents/github/libopencm3/lib/libopencm3_stm32f4.a(spi_common_all.o)
spi_enable_software_slave_management              /mnt/c/users/isaacstalley/documents/github/libopencm3/lib/libopencm3_stm32f4.a(spi_common_all.o)
spi_enable_ss_output                              /mnt/c/users/isaacstalley/documents/github/libopencm3/lib/libopencm3_stm32f4.a(spi_common_all.o)
                                                  build/lcd-spi.o
spi_enable_tx_buffer_empty_interrupt              /mnt/c/users/isaacstalley/documents/github/libopencm3/lib/libopencm3_stm32f4.a(spi_common_all.o)
spi_enable_tx_dma                                 /mnt/c/users/isaacstalley/documents/github/libopencm3/lib/libopencm3_stm32f4.a(spi_common_all.o)
spi_init_master                                   /mnt/c/users/isaacstalley/documents/github/libopencm3/lib/libopencm3_stm32f4.a(spi_common_v1.o)
                                                  build/lcd-spi.o
spi_read                                          /mnt/c/users/isaacstalley/documents/github/libopencm3/lib/libopencm3_stm32f4.a(spi_common_all.o)
                                                  build/spi-mems.o
spi_send                                          /mnt/c/users/isaacstalley/documents/github/libopencm3/lib/libopencm3_stm32f4.a(spi_common_all.o)
                                                  build/spi-mems.o
spi_send_lsb_first                                /mnt/c/users/isaacstalley/documents/github/libopencm3/lib/libopencm3_stm32f4.a(spi_common_all.o)
spi_send_msb_first                                /mnt/c/users/isaacstalley/documents/github/libopencm3/lib/libopencm3_stm32f4.a(spi_common_all.o)
spi_set_baudrate_prescaler                        /mnt/c/users/isaacstalley/documents/github/libopencm3/lib/libopencm3_stm32f4.a(spi_common_all.o)
spi_set_bidirectional_mode                        /mnt/c/users/isaacstalley/documents/github/libopencm3/lib/libopencm3_stm32f4.a(spi_common_all.o)
spi_set_bidirectional_receive_only_mode           /mnt/c/users/isaacstalley/documents/github/libopencm3/lib/libopencm3_stm32f4.a(spi_common_all.o)
spi_set_bidirectional_transmit_only_mode          /mnt/c/users/isaacstalley/documents/github/libopencm3/lib/libopencm3_stm32f4.a(spi_common_all.o)
spi_set_clock_phase_0                             /mnt/c/users/isaacstalley/documents/github/libopencm3/lib/libopencm3_stm32f4.a(spi_common_all.o)
spi_set_clock_phase_1                             /mnt/c/users/isaacstalley/documents/github/libopencm3/lib/libopencm3_stm32f4.a(spi_common_all.o)
spi_set_clock_polarity_0                          /mnt/c/users/isaacstalley/documents/github/libopencm3/lib/libopencm3_stm32f4.a(spi_common_all.o)
spi_set_clock_polarity_1                          /mnt/c/users/isaacstalley/documents/github/libopencm3/lib/libopencm3_stm32f4.a(spi_common_all.o)
spi_set_dff_16bit                                 /mnt/c/users/isaacstalley/documents/github/libopencm3/lib/libopencm3_stm32f4.a(spi_common_v1.o)
spi_set_dff_8bit                                  /mnt/c/users/isaacstalley/documents/github/libopencm3/lib/libopencm3_stm32f4.a(spi_common_v1.o)
spi_set_full_duplex_mode                          /mnt/c/users/isaacstalley/documents/github/libopencm3/lib/libopencm3_stm32f4.a(spi_common_all.o)
spi_set_master_mode                               /mnt/c/users/isaacstalley/documents/github/libopencm3/lib/libopencm3_stm32f4.a(spi_common_all.o)
spi_set_next_tx_from_buffer                       /mnt/c/users/isaacstalley/documents/github/libopencm3/lib/libopencm3_stm32f4.a(spi_common_all.o)
spi_set_next_tx_from_crc                          /mnt/c/users/isaacstalley/documents/github/libopencm3/lib/libopencm3_stm32f4.a(spi_common_all.o)
spi_set_nss_high                                  /mnt/c/users/isaacstalley/documents/github/libopencm3/lib/libopencm3_stm32f4.a(spi_common_all.o)
spi_set_nss_low                                   /mnt/c/users/isaacstalley/documents/github/libopencm3/lib/libopencm3_stm32f4.a(spi_common_all.o)
spi_set_receive_only_mode                         /mnt/c/users/isaacstalley/documents/github/libopencm3/lib/libopencm3_stm32f4.a(spi_common_all.o)
spi_set_slave_mode                                /mnt/c/users/isaacstalley/documents/github/libopencm3/lib/libopencm3_stm32f4.a(spi_common_all.o)
spi_set_standard_mode                             /mnt/c/users/isaacstalley/documents/github/libopencm3/lib/libopencm3_stm32f4.a(spi_common_all.o)
spi_set_unidirectional_mode                       /mnt/c/users/isaacstalley/documents/github/libopencm3/lib/libopencm3_stm32f4.a(spi_common_all.o)
spi_write                                         /mnt/c/users/isaacstalley/documents/github/libopencm3/lib/libopencm3_stm32f4.a(spi_common_all.o)
spi_xfer                                          /mnt/c/users/isaacstalley/documents/github/libopencm3/lib/libopencm3_stm32f4.a(spi_common_all.o)
                                                  build/lcd-spi.o
sprintf                                           /usr/lib/gcc/arm-none-eabi/10.3.1/../../../arm-none-eabi/lib/thumb/v7e-m+fp/hard/libc_nano.a(lib_a-sprintf.o)
                                                  build/main.o
stm32f207_usb_driver                              /mnt/c/users/isaacstalley/documents/github/libopencm3/lib/libopencm3_stm32f4.a(usb_f207.o)
                                                  build/usb-com.o
strlen                                            /usr/lib/gcc/arm-none-eabi/10.3.1/../../../arm-none-eabi/lib/thumb/v7e-m+fp/hard/libc_nano.a(lib_a-strlen.o)
                                                  /mnt/c/users/isaacstalley/documents/github/libopencm3/lib/libopencm3_stm32f4.a(usb_standard.o)
sv_call_handler                                   /mnt/c/users/isaacstalley/documents/github/libopencm3/lib/libopencm3_stm32f4.a(vector.o)
sys_tick_handler                                  build/clock.o
systick_clear                                     /mnt/c/users/isaacstalley/documents/github/libopencm3/lib/libopencm3_stm32f4.a(systick.o)
systick_counter_disable                           /mnt/c/users/isaacstalley/documents/github/libopencm3/lib/libopencm3_stm32f4.a(systick.o)
systick_counter_enable                            /mnt/c/users/isaacstalley/documents/github/libopencm3/lib/libopencm3_stm32f4.a(systick.o)
                                                  build/clock.o
systick_get_calib                                 /mnt/c/users/isaacstalley/documents/github/libopencm3/lib/libopencm3_stm32f4.a(systick.o)
systick_get_countflag                             /mnt/c/users/isaacstalley/documents/github/libopencm3/lib/libopencm3_stm32f4.a(systick.o)
systick_get_reload                                /mnt/c/users/isaacstalley/documents/github/libopencm3/lib/libopencm3_stm32f4.a(systick.o)
systick_get_value                                 /mnt/c/users/isaacstalley/documents/github/libopencm3/lib/libopencm3_stm32f4.a(systick.o)
systick_interrupt_disable                         /mnt/c/users/isaacstalley/documents/github/libopencm3/lib/libopencm3_stm32f4.a(systick.o)
systick_interrupt_enable                          /mnt/c/users/isaacstalley/documents/github/libopencm3/lib/libopencm3_stm32f4.a(systick.o)
                                                  build/clock.o
systick_set_clocksource                           /mnt/c/users/isaacstalley/documents/github/libopencm3/lib/libopencm3_stm32f4.a(systick.o)
                                                  build/clock.o
systick_set_frequency                             /mnt/c/users/isaacstalley/documents/github/libopencm3/lib/libopencm3_stm32f4.a(systick.o)
systick_set_reload                                /mnt/c/users/isaacstalley/documents/github/libopencm3/lib/libopencm3_stm32f4.a(systick.o)
                                                  build/clock.o
tamp_stamp_isr                                    /mnt/c/users/isaacstalley/documents/github/libopencm3/lib/libopencm3_stm32f4.a(vector.o)
tim1_brk_tim9_isr                                 /mnt/c/users/isaacstalley/documents/github/libopencm3/lib/libopencm3_stm32f4.a(vector.o)
tim1_cc_isr                                       /mnt/c/users/isaacstalley/documents/github/libopencm3/lib/libopencm3_stm32f4.a(vector.o)
tim1_trg_com_tim11_isr                            /mnt/c/users/isaacstalley/documents/github/libopencm3/lib/libopencm3_stm32f4.a(vector.o)
tim1_up_tim10_isr                                 /mnt/c/users/isaacstalley/documents/github/libopencm3/lib/libopencm3_stm32f4.a(vector.o)
tim2_isr                                          /mnt/c/users/isaacstalley/documents/github/libopencm3/lib/libopencm3_stm32f4.a(vector.o)
tim3_isr                                          /mnt/c/users/isaacstalley/documents/github/libopencm3/lib/libopencm3_stm32f4.a(vector.o)
tim4_isr                                          /mnt/c/users/isaacstalley/documents/github/libopencm3/lib/libopencm3_stm32f4.a(vector.o)
tim5_isr                                          /mnt/c/users/isaacstalley/documents/github/libopencm3/lib/libopencm3_stm32f4.a(vector.o)
tim6_dac_isr                                      /mnt/c/users/isaacstalley/documents/github/libopencm3/lib/libopencm3_stm32f4.a(vector.o)
tim7_isr                                          /mnt/c/users/isaacstalley/documents/github/libopencm3/lib/libopencm3_stm32f4.a(vector.o)
tim8_brk_tim12_isr                                /mnt/c/users/isaacstalley/documents/github/libopencm3/lib/libopencm3_stm32f4.a(vector.o)
tim8_cc_isr                                       /mnt/c/users/isaacstalley/documents/github/libopencm3/lib/libopencm3_stm32f4.a(vector.o)
tim8_trg_com_tim14_isr                            /mnt/c/users/isaacstalley/documents/github/libopencm3/lib/libopencm3_stm32f4.a(vector.o)
tim8_up_tim13_isr                                 /mnt/c/users/isaacstalley/documents/github/libopencm3/lib/libopencm3_stm32f4.a(vector.o)
uart4_isr                                         /mnt/c/users/isaacstalley/documents/github/libopencm3/lib/libopencm3_stm32f4.a(vector.o)
uart5_isr                                         /mnt/c/users/isaacstalley/documents/github/libopencm3/lib/libopencm3_stm32f4.a(vector.o)
uart7_isr                                         /mnt/c/users/isaacstalley/documents/github/libopencm3/lib/libopencm3_stm32f4.a(vector.o)
uart8_isr                                         /mnt/c/users/isaacstalley/documents/github/libopencm3/lib/libopencm3_stm32f4.a(vector.o)
usage_fault_handler                               /mnt/c/users/isaacstalley/documents/github/libopencm3/lib/libopencm3_stm32f4.a(vector.o)
usart1_isr                                        /mnt/c/users/isaacstalley/documents/github/libopencm3/lib/libopencm3_stm32f4.a(vector.o)
usart2_isr                                        /mnt/c/users/isaacstalley/documents/github/libopencm3/lib/libopencm3_stm32f4.a(vector.o)
usart3_isr                                        /mnt/c/users/isaacstalley/documents/github/libopencm3/lib/libopencm3_stm32f4.a(vector.o)
usart6_isr                                        /mnt/c/users/isaacstalley/documents/github/libopencm3/lib/libopencm3_stm32f4.a(vector.o)
usb_fs_wkup_isr                                   /mnt/c/users/isaacstalley/documents/github/libopencm3/lib/libopencm3_stm32f4.a(vector.o)
usb_setup                                         build/usb-com.o
                                                  build/main.o
usbd_control_buffer                               build/usb-com.o
usbd_disconnect                                   /mnt/c/users/isaacstalley/documents/github/libopencm3/lib/libopencm3_stm32f4.a(usb.o)
usbd_ep_nak_set                                   /mnt/c/users/isaacstalley/documents/github/libopencm3/lib/libopencm3_stm32f4.a(usb.o)
                                                  /mnt/c/users/isaacstalley/documents/github/libopencm3/lib/libopencm3_stm32f4.a(usb_control.o)
usbd_ep_read_packet                               /mnt/c/users/isaacstalley/documents/github/libopencm3/lib/libopencm3_stm32f4.a(usb.o)
                                                  /mnt/c/users/isaacstalley/documents/github/libopencm3/lib/libopencm3_stm32f4.a(usb_control.o)
                                                  build/usb-com.o
usbd_ep_setup                                     /mnt/c/users/isaacstalley/documents/github/libopencm3/lib/libopencm3_stm32f4.a(usb.o)
                                                  build/usb-com.o
usbd_ep_stall_get                                 /mnt/c/users/isaacstalley/documents/github/libopencm3/lib/libopencm3_stm32f4.a(usb.o)
                                                  /mnt/c/users/isaacstalley/documents/github/libopencm3/lib/libopencm3_stm32f4.a(usb_standard.o)
usbd_ep_stall_set                                 /mnt/c/users/isaacstalley/documents/github/libopencm3/lib/libopencm3_stm32f4.a(usb.o)
                                                  /mnt/c/users/isaacstalley/documents/github/libopencm3/lib/libopencm3_stm32f4.a(usb_control.o)
                                                  /mnt/c/users/isaacstalley/documents/github/libopencm3/lib/libopencm3_stm32f4.a(usb_standard.o)
usbd_ep_write_packet                              /mnt/c/users/isaacstalley/documents/github/libopencm3/lib/libopencm3_stm32f4.a(usb.o)
                                                  /mnt/c/users/isaacstalley/documents/github/libopencm3/lib/libopencm3_stm32f4.a(usb_control.o)
                                                  build/usb-com.o
usbd_init                                         /mnt/c/users/isaacstalley/documents/github/libopencm3/lib/libopencm3_stm32f4.a(usb.o)
                                                  build/usb-com.o
usbd_poll                                         /mnt/c/users/isaacstalley/documents/github/libopencm3/lib/libopencm3_stm32f4.a(usb.o)
                                                  build/main.o
usbd_register_control_callback                    /mnt/c/users/isaacstalley/documents/github/libopencm3/lib/libopencm3_stm32f4.a(usb_control.o)
                                                  build/usb-com.o
usbd_register_extra_string                        /mnt/c/users/isaacstalley/documents/github/libopencm3/lib/libopencm3_stm32f4.a(usb.o)
usbd_register_reset_callback                      /mnt/c/users/isaacstalley/documents/github/libopencm3/lib/libopencm3_stm32f4.a(usb.o)
usbd_register_resume_callback                     /mnt/c/users/isaacstalley/documents/github/libopencm3/lib/libopencm3_stm32f4.a(usb.o)
usbd_register_set_altsetting_callback             /mnt/c/users/isaacstalley/documents/github/libopencm3/lib/libopencm3_stm32f4.a(usb_standard.o)
usbd_register_set_config_callback                 /mnt/c/users/isaacstalley/documents/github/libopencm3/lib/libopencm3_stm32f4.a(usb_standard.o)
                                                  build/usb-com.o
usbd_register_sof_callback                        /mnt/c/users/isaacstalley/documents/github/libopencm3/lib/libopencm3_stm32f4.a(usb.o)
usbd_register_suspend_callback                    /mnt/c/users/isaacstalley/documents/github/libopencm3/lib/libopencm3_stm32f4.a(usb.o)
vector_table                                      /mnt/c/users/isaacstalley/documents/github/libopencm3/lib/libopencm3_stm32f4.a(vector.o)
write_reg                                         build/spi-mems.o
